(iautomaton
Automaton
p1
(dp2
S'last_state'
p3
I882
sS'end_states'
p4
(dp5
I2
(S'a_fortiori'
(lp6
S'a'
aS'fortiori'
p7
aS'ADV'
I2
tp8
sI3
(S'a_priori'
(lp9
S'a'
aS'priori'
p10
aS'ADV'
I2
tp11
sI5
(S'ad_hoc'
(lp12
S'ad'
p13
aS'hoc'
p14
aS'ADJ'
I2
tp15
sI7
(S"afin_d'"
(lp16
S'afin'
p17
aS"d'"
p18
aS'P'
I2
tp19
sI8
(S'afin_de'
(lp20
S'afin'
p21
aS'de'
p22
aS'P'
I2
tp23
sI9
(S'afin_que'
(lp24
S'afin'
p25
aS'que'
p26
aS'CS'
I2
tp27
sI11
(S"ainsi_qu'"
(lp28
S'ainsi'
p29
aS"qu'"
p30
aS'CS'
I2
tp31
sI12
(S'ainsi_que'
(lp32
S'ainsi'
p33
aS'que'
p34
aS'CS'
I2
tp35
sI15
(S'alors_m\xc3\xaame_que'
(lp36
S'alors'
p37
aS'm\xc3\xaame'
p38
aS'que'
p39
aS'CS'
I3
tp40
sI16
(S"alors_qu'"
(lp41
S'alors'
p42
aS"qu'"
p43
aS'CS'
I2
tp44
sI17
(S'alors_que'
(lp45
S'alors'
p46
aS'que'
p47
aS'CS'
I2
tp48
sI19
(S'apr\xc3\xa8s_que'
(lp49
S'apr\xc3\xa8s'
p50
aS'que'
p51
aS'CS'
I2
tp52
sI20
(S'apr\xc3\xa8s_quoi'
(lp53
S'apr\xc3\xa8s'
p54
aS'quoi'
p55
aS'ADV'
I2
tp56
sI23
(S'au_bord_du'
(lp57
S'au'
p58
aS'bord'
p59
aS'du'
p60
aS'P'
I3
tp61
sI25
(S'au_bout_de'
(lp62
S'au'
p63
aS'bout'
p64
aS'de'
p65
aS'P'
I3
tp66
sI27
(S'au_bout_du_compte'
(lp67
S'au'
p68
aS'bout'
p69
aS'du'
p70
aS'compte'
p71
aS'ADV'
I4
tp72
sI30
(S'au_cas_par_cas'
(lp73
S'au'
p74
aS'cas'
p75
aS'par'
p76
aS'cas'
p77
aS'ADV'
I4
tp78
sI32
(S'au_coeur_de'
(lp79
S'au'
p80
aS'coeur'
p81
aS'de'
p82
aS'P'
I3
tp83
sI33
(S'au_comptant'
(lp84
S'au'
p85
aS'comptant'
p86
aS'ADV'
I2
tp87
sI34
(S'au_contraire'
(lp88
S'au'
p89
aS'contraire'
p90
aS'ADV'
I2
tp91
sI35
(S'au_cours'
(lp92
S'au'
p93
aS'cours'
p94
aS'P'
I2
tp95
sI36
(S"au_cours_d'"
(lp96
S'au'
p97
aS'cours'
p98
aS"d'"
p99
aS'P'
I3
tp100
sI37
(S'au_cours_de'
(lp101
S'au'
p102
aS'cours'
p103
aS'de'
p104
aS'P'
I3
tp105
sI38
(S'au_cours_des'
(lp106
S'au'
p107
aS'cours'
p108
aS'des'
p109
aS'P'
I3
tp110
sI39
(S'au_cours_du'
(lp111
S'au'
p112
aS'cours'
p113
aS'du'
p114
aS'P'
I3
tp115
sI40
(S'au_demeurant'
(lp116
S'au'
p117
aS'demeurant'
p118
aS'ADV'
I2
tp119
sI42
(S'au_d\xc3\xa9but_de'
(lp120
S'au'
p121
aS'd\xc3\xa9but'
p122
aS'de'
p123
aS'P'
I3
tp124
sI43
(S'au_d\xc3\xa9but_des'
(lp125
S'au'
p126
aS'd\xc3\xa9but'
p127
aS'des'
p128
aS'P'
I3
tp129
sI44
(S'au_d\xc3\xa9but_du'
(lp130
S'au'
p131
aS'd\xc3\xa9but'
p132
aS'du'
p133
aS'P'
I3
tp134
sI46
(S'au_d\xc3\xa9triment_de'
(lp135
S'au'
p136
aS'd\xc3\xa9triment'
p137
aS'de'
p138
aS'P'
I3
tp139
sI48
(S'au_fil_des'
(lp140
S'au'
p141
aS'fil'
p142
aS'des'
p143
aS'P'
I3
tp144
sI53
(S'au_fur_et_\xc3\xa0_mesure_que'
(lp145
S'au'
p146
aS'fur'
p147
aS'et'
p148
aS'\xc3\xa0'
p149
aS'mesure'
p150
aS'que'
p151
aS'CS'
I6
tp152
sI55
(S'au_gr\xc3\xa9_des'
(lp153
S'au'
p154
aS'gr\xc3\xa9'
p155
aS'des'
p156
aS'P'
I3
tp157
sI58
(S'au_jour_le_jour'
(lp158
S'au'
p159
aS'jour'
p160
aS'le'
p161
aS'jour'
p162
aS'ADV'
I4
tp163
sI59
(S'au_large'
(lp164
S'au'
p165
aS'large'
p166
aS'ADV'
I2
tp167
sI61
(S'au_lendemain_des'
(lp168
S'au'
p169
aS'lendemain'
p170
aS'des'
p171
aS'P'
I3
tp172
sI63
(S"au_lieu_d'"
(lp173
S'au'
p174
aS'lieu'
p175
aS"d'"
p176
aS'P'
I3
tp177
sI64
(S'au_lieu_de'
(lp178
S'au'
p179
aS'lieu'
p180
aS'de'
p181
aS'P'
I3
tp182
sI65
(S'au_lieu_des'
(lp183
S'au'
p184
aS'lieu'
p185
aS'des'
p186
aS'P'
I3
tp187
sI66
(S'au_maximum'
(lp188
S'au'
p189
aS'maximum'
p190
aS'ADV'
I2
tp191
sI67
(S'au_mieux'
(lp192
S'au'
p193
aS'mieux'
p194
aS'ADV'
I2
tp195
sI69
(S'au_milieu_des'
(lp196
S'au'
p197
aS'milieu'
p198
aS'des'
p199
aS'P'
I3
tp200
sI70
(S'au_minimum'
(lp201
S'au'
p202
aS'minimum'
p203
aS'ADV'
I2
tp204
sI71
(S'au_moins'
(lp205
S'au'
p206
aS'moins'
p207
aS'ADV'
I2
tp208
sI73
(S'au_mois_de'
(lp209
S'au'
p210
aS'mois'
p211
aS'de'
p212
aS'P'
I3
tp213
sI75
(S'au_moment_de'
(lp214
S'au'
p215
aS'moment'
p216
aS'de'
p217
aS'P'
I3
tp218
sI76
(S'au_moment_o\xc3\xb9'
(lp219
S'au'
p220
aS'moment'
p221
aS'o\xc3\xb9'
p222
aS'CS'
I3
tp223
sI78
(S'au_niveau_de'
(lp224
S'au'
p225
aS'niveau'
p226
aS'de'
p227
aS'P'
I3
tp228
sI80
(S'au_nom_de'
(lp229
S'au'
p230
aS'nom'
p231
aS'de'
p232
aS'P'
I3
tp233
sI81
(S'au_passage'
(lp234
S'au'
p235
aS'passage'
p236
aS'ADV'
I2
tp237
sI83
(S'au_pied_lev\xc3\xa9'
(lp238
S'au'
p239
aS'pied'
p240
aS'lev\xc3\xa9'
p241
aS'ADV'
I3
tp242
sI84
(S'au_plus'
(lp243
S'au'
p244
aS'plus'
p245
aS'ADV'
I2
tp246
sI85
(S'au_plus_bas'
(lp247
S'au'
p248
aS'plus'
p249
aS'bas'
p250
aS'ADV'
I3
tp251
sI87
(S'au_plus_fort_de'
(lp252
S'au'
p253
aS'plus'
p254
aS'fort'
p255
aS'de'
p256
aS'P'
I4
tp257
sI88
(S'au_plus_tard'
(lp258
S'au'
p259
aS'plus'
p260
aS'tard'
p261
aS'ADV'
I3
tp262
sI89
(S'au_plus_vite'
(lp263
S'au'
p264
aS'plus'
p265
aS'vite'
p266
aS'ADV'
I3
tp267
sI91
(S"au_point_d'"
(lp268
S'au'
p269
aS'point'
p270
aS"d'"
p271
aS'P'
I3
tp272
sI92
(S'au_pouvoir'
(lp273
S'au'
p274
aS'pouvoir'
p275
aS'ADV'
I2
tp276
sI94
(S'au_premier_chef'
(lp277
S'au'
p278
aS'premier'
p279
aS'chef'
p280
aS'ADV'
I3
tp281
sI96
(S"au_prix_d'"
(lp282
S'au'
p283
aS'prix'
p284
aS"d'"
p285
aS'P'
I3
tp286
sI97
(S'au_prix_de'
(lp287
S'au'
p288
aS'prix'
p289
aS'de'
p290
aS'P'
I3
tp291
sI99
(S'au_profit_de'
(lp292
S'au'
p293
aS'profit'
p294
aS'de'
p295
aS'P'
I3
tp296
sI100
(S'au_profit_des'
(lp297
S'au'
p298
aS'profit'
p299
aS'des'
p300
aS'P'
I3
tp301
sI101
(S'au_profit_du'
(lp302
S'au'
p303
aS'profit'
p304
aS'du'
p305
aS'P'
I3
tp306
sI102
(S'au_pr\xc3\xa9alable'
(lp307
S'au'
p308
aS'pr\xc3\xa9alable'
p309
aS'ADV'
I2
tp310
sI104
(S'au_regard_du'
(lp311
S'au'
p312
aS'regard'
p313
aS'du'
p314
aS'P'
I3
tp315
sI105
(S'au_reste'
(lp316
S'au'
p317
aS'reste'
p318
aS'ADV'
I2
tp319
sI106
(S'au_sein'
(lp320
S'au'
p321
aS'sein'
p322
aS'P'
I2
tp323
sI107
(S"au_sein_d'"
(lp324
S'au'
p325
aS'sein'
p326
aS"d'"
p327
aS'P'
I3
tp328
sI108
(S'au_sein_de'
(lp329
S'au'
p330
aS'sein'
p331
aS'de'
p332
aS'P'
I3
tp333
sI109
(S'au_sein_des'
(lp334
S'au'
p335
aS'sein'
p336
aS'des'
p337
aS'P'
I3
tp338
sI110
(S'au_sein_du'
(lp339
S'au'
p340
aS'sein'
p341
aS'du'
p342
aS'P'
I3
tp343
sI112
(S'au_sommet_de'
(lp344
S'au'
p345
aS'sommet'
p346
aS'de'
p347
aS'P'
I3
tp348
sI114
(S'au_sujet_de'
(lp349
S'au'
p350
aS'sujet'
p351
aS'de'
p352
aS'P'
I3
tp353
sI116
(S'au_titre_de'
(lp354
S'au'
p355
aS'titre'
p356
aS'de'
p357
aS'P'
I3
tp358
sI117
(S'au_titre_des'
(lp359
S'au'
p360
aS'titre'
p361
aS'des'
p362
aS'P'
I3
tp363
sI118
(S'au_titre_du'
(lp364
S'au'
p365
aS'titre'
p366
aS'du'
p367
aS'P'
I3
tp368
sI119
(S'au_total'
(lp369
S'au'
p370
aS'total'
p371
aS'ADV'
I2
tp372
sI121
(S'au_vu_des'
(lp373
S'au'
p374
aS'vu'
p375
aS'des'
p376
aS'P'
I3
tp377
sI123
(S"aupr\xc3\xa8s_d'"
(lp378
S'aupr\xc3\xa8s'
p379
aS"d'"
p380
aS'P'
I2
tp381
sI124
(S'aupr\xc3\xa8s_de'
(lp382
S'aupr\xc3\xa8s'
p383
aS'de'
p384
aS'P'
I2
tp385
sI125
(S'aupr\xc3\xa8s_des'
(lp386
S'aupr\xc3\xa8s'
p387
aS'des'
p388
aS'P'
I2
tp389
sI126
(S'aupr\xc3\xa8s_du'
(lp390
S'aupr\xc3\xa8s'
p391
aS'du'
p392
aS'P'
I2
tp393
sI128
(S'aussi_bien'
(lp394
S'aussi'
p395
aS'bien'
p396
aS'ADV'
I2
tp397
sI130
(S"autant_qu'"
(lp398
S'autant'
p399
aS"qu'"
p400
aS'CS'
I2
tp401
sI131
(S'autant_que'
(lp402
S'autant'
p403
aS'que'
p404
aS'CS'
I2
tp405
sI133
(S"autour_d'"
(lp406
S'autour'
p407
aS"d'"
p408
aS'P'
I2
tp409
sI134
(S'autour_de'
(lp410
S'autour'
p411
aS'de'
p412
aS'P'
I2
tp413
sI135
(S'autour_des'
(lp414
S'autour'
p415
aS'des'
p416
aS'P'
I2
tp417
sI136
(S'autour_du'
(lp418
S'autour'
p419
aS'du'
p420
aS'P'
I2
tp421
sI138
(S'autrement_dit'
(lp422
S'autrement'
p423
aS'dit'
p424
aS'ADV'
I2
tp425
sI141
(S'aux_alentours_de'
(lp426
S'aux'
p427
aS'alentours'
p428
aS'de'
p429
aS'P'
I3
tp430
sI143
(S'aux_c\xc3\xb4t\xc3\xa9s_des'
(lp431
S'aux'
p432
aS'c\xc3\xb4t\xc3\xa9s'
p433
aS'des'
p434
aS'P'
I3
tp435
sI145
(S'aux_d\xc3\xa9pens_des'
(lp436
S'aux'
p437
aS'd\xc3\xa9pens'
p438
aS'des'
p439
aS'P'
I3
tp440
sI147
(S'aux_environs_de'
(lp441
S'aux'
p442
aS'environs'
p443
aS'de'
p444
aS'P'
I3
tp445
sI149
(S"avant_d'"
(lp446
S'avant'
p447
aS"d'"
p448
aS'P'
I2
tp449
sI150
(S'avant_de'
(lp450
S'avant'
p451
aS'de'
p452
aS'P'
I2
tp453
sI151
(S'avant_m\xc3\xaame'
(lp454
S'avant'
p455
aS'm\xc3\xaame'
p456
aS'P'
I2
tp457
sI152
(S'avant_que'
(lp458
S'avant'
p459
aS'que'
p460
aS'CS'
I2
tp461
sI153
(S'avant_tout'
(lp462
S'avant'
p463
aS'tout'
p464
aS'ADV'
I2
tp465
sI155
(S'beaucoup_de'
(lp466
S'beaucoup'
p467
aS'de'
p468
aS'DET'
I2
tp469
sI156
(S'beaucoup_moins'
(lp470
S'beaucoup'
p471
aS'moins'
p472
aS'ADV'
I2
tp473
sI157
(S'beaucoup_plus'
(lp474
S'beaucoup'
p475
aS'plus'
p476
aS'ADV'
I2
tp477
sI160
(S'bel_et_bien'
(lp478
S'bel'
p479
aS'et'
p480
aS'bien'
p481
aS'ADV'
I3
tp482
sI162
(S'bien_des'
(lp483
S'bien'
p484
aS'des'
p485
aS'DET'
I2
tp486
sI163
(S'bien_entendu'
(lp487
S'bien'
p488
aS'entendu'
p489
aS'ADV'
I2
tp490
sI164
(S'bien_plus'
(lp491
S'bien'
p492
aS'plus'
p493
aS'ADV'
I2
tp494
sI165
(S"bien_qu'"
(lp495
S'bien'
p496
aS"qu'"
p497
aS'CS'
I2
tp498
sI166
(S'bien_que'
(lp499
S'bien'
p500
aS'que'
p501
aS'CS'
I2
tp502
sI167
(S'bien_s\xc3\xbbr'
(lp503
S'bien'
p504
aS's\xc3\xbbr'
p505
aS'ADV'
I2
tp506
sI169
(S'bon_march\xc3\xa9'
(lp507
S'bon'
p508
aS'march\xc3\xa9'
p509
aS'ADJ'
I2
tp510
sI173
(S'b\xc3\xa2timent_et_travaux_publics'
(lp511
S'b\xc3\xa2timent'
p512
aS'et'
p513
aS'travaux'
p514
aS'publics'
p515
aS'NC'
I4
tp516
sI175
(S'cent_cinquante'
(lp517
S'cent'
p518
aS'cinquante'
p519
aS'DET'
I2
tp520
sI176
(S'cent_mille'
(lp521
S'cent'
p522
aS'mille'
p523
aS'DET'
I2
tp524
sI178
(S'certainement_pas'
(lp525
S'certainement'
p526
aS'pas'
p527
aS'ADV'
I2
tp528
sI181
(S'chaque_fois_que'
(lp529
S'chaque'
p530
aS'fois'
p531
aS'que'
p532
aS'CS'
I3
tp533
sI184
(S'charg\xc3\xa9_de_mission'
(lp534
S'charg\xc3\xa9'
p535
aS'de'
p536
aS'mission'
p537
aS'NC'
I3
tp538
sI186
(S'cinq_cents'
(lp539
S'cinq'
p540
aS'cents'
p541
aS'DET'
I2
tp542
sI189
(S'cinquante_et_un'
(lp543
S'cinquante'
p544
aS'et'
p545
aS'un'
p546
aS'DET'
I3
tp547
sI190
(S'cinquante_mille'
(lp548
S'cinquante'
p549
aS'mille'
p550
aS'DET'
I2
tp551
sI192
(S'comme_si'
(lp552
S'comme'
p553
aS'si'
p554
aS'CS'
I2
tp555
sI195
(S'compte_tenu_de'
(lp556
S'compte'
p557
aS'tenu'
p558
aS'de'
p559
aS'P'
I3
tp560
sI196
(S'compte_tenu_des'
(lp561
S'compte'
p562
aS'tenu'
p563
aS'des'
p564
aS'P'
I3
tp565
sI198
(S'contrairement_aux'
(lp566
S'contrairement'
p567
aS'aux'
p568
aS'P'
I2
tp569
sI199
(S'contrairement_\xc3\xa0'
(lp570
S'contrairement'
p571
aS'\xc3\xa0'
p572
aS'P'
I2
tp573
sI201
(S'court_terme'
(lp574
S'court'
p575
aS'terme'
p576
aS'ADJ'
I2
tp577
sI204
(S'co\xc3\xbbte_que_co\xc3\xbbte'
(lp578
S'co\xc3\xbbte'
p579
aS'que'
p580
aS'co\xc3\xbbte'
p581
aS'ADV'
I3
tp582
sI207
(S'dans_ce_sens'
(lp583
S'dans'
p584
aS'ce'
p585
aS'sens'
p586
aS'ADV'
I3
tp587
sI209
(S'dans_ces_conditions'
(lp588
S'dans'
p589
aS'ces'
p590
aS'conditions'
p591
aS'ADV'
I3
tp592
sI212
(S'dans_la_mesure_o\xc3\xb9'
(lp593
S'dans'
p594
aS'la'
p595
aS'mesure'
p596
aS'o\xc3\xb9'
p597
aS'CS'
I4
tp598
sI215
(S'dans_le_but_de'
(lp599
S'dans'
p600
aS'le'
p601
aS'but'
p602
aS'de'
p603
aS'P'
I4
tp604
sI217
(S"dans_le_cadre_d'"
(lp605
S'dans'
p606
aS'le'
p607
aS'cadre'
p608
aS"d'"
p609
aS'P'
I4
tp610
sI218
(S'dans_le_cadre_de'
(lp611
S'dans'
p612
aS'le'
p613
aS'cadre'
p614
aS'de'
p615
aS'P'
I4
tp616
sI219
(S'dans_le_cadre_du'
(lp617
S'dans'
p618
aS'le'
p619
aS'cadre'
p620
aS'du'
p621
aS'P'
I4
tp622
sI221
(S'dans_le_cas_de'
(lp623
S'dans'
p624
aS'le'
p625
aS'cas'
p626
aS'de'
p627
aS'P'
I4
tp628
sI223
(S'dans_le_domaine_de'
(lp629
S'dans'
p630
aS'le'
p631
aS'domaine'
p632
aS'de'
p633
aS'P'
I4
tp634
sI224
(S'dans_le_domaine_des'
(lp635
S'dans'
p636
aS'le'
p637
aS'domaine'
p638
aS'des'
p639
aS'P'
I4
tp640
sI225
(S'dans_le_domaine_du'
(lp641
S'dans'
p642
aS'le'
p643
aS'domaine'
p644
aS'du'
p645
aS'P'
I4
tp646
sI227
(S'dans_le_giron_de'
(lp647
S'dans'
p648
aS'le'
p649
aS'giron'
p650
aS'de'
p651
aS'P'
I4
tp652
sI229
(S'dans_le_m\xc3\xaame_temps'
(lp653
S'dans'
p654
aS'le'
p655
aS'm\xc3\xaame'
p656
aS'temps'
p657
aS'ADV'
I4
tp658
sI230
(S'dans_le_pass\xc3\xa9'
(lp659
S'dans'
p660
aS'le'
p661
aS'pass\xc3\xa9'
p662
aS'ADV'
I3
tp663
sI231
(S'dans_le_rouge'
(lp664
S'dans'
p665
aS'le'
p666
aS'rouge'
p667
aS'ADV'
I3
tp668
sI232
(S'dans_le_temps'
(lp669
S'dans'
p670
aS'le'
p671
aS'temps'
p672
aS'ADV'
I3
tp673
sI235
(S'dans_les_prochains_jours'
(lp674
S'dans'
p675
aS'les'
p676
aS'prochains'
p677
aS'jours'
p678
aS'ADV'
I4
tp679
sI237
(S'dans_son_ensemble'
(lp680
S'dans'
p681
aS'son'
p682
aS'ensemble'
p683
aS'ADV'
I3
tp684
sI240
(S'dans_un_premier_temps'
(lp685
S'dans'
p686
aS'un'
p687
aS'premier'
p688
aS'temps'
p689
aS'ADV'
I4
tp690
sI242
(S'de_base'
(lp691
S'de'
p692
aS'base'
p693
aS'ADJ'
I2
tp694
sI244
(S'de_ce_fait'
(lp695
S'de'
p696
aS'ce'
p697
aS'fait'
p698
aS'ADV'
I3
tp699
sI245
(S'de_facto'
(lp700
S'de'
p701
aS'facto'
p702
aS'ADV'
I2
tp703
sI246
(S'de_fait'
(lp704
S'de'
p705
aS'fait'
p706
aS'ADV'
I2
tp707
sI247
(S"de_l'"
(lp708
S'de'
p709
aS"l'"
p710
aS'DET'
I2
tp711
sI248
(S'de_la'
(lp712
S'de'
p713
aS'la'
p714
aS'DET'
I2
tp715
sI250
(S'de_la_part_de'
(lp716
S'de'
p717
aS'la'
p718
aS'part'
p719
aS'de'
p720
aS'P'
I4
tp721
sI251
(S'de_la_part_des'
(lp722
S'de'
p723
aS'la'
p724
aS'part'
p725
aS'des'
p726
aS'P'
I4
tp727
sI252
(S'de_la_part_du'
(lp728
S'de'
p729
aS'la'
p730
aS'part'
p731
aS'du'
p732
aS'P'
I4
tp733
sI253
(S'de_loin'
(lp734
S'de'
p735
aS'loin'
p736
aS'ADV'
I2
tp737
sI255
(S'de_longue_date'
(lp738
S'de'
p739
aS'longue'
p740
aS'date'
p741
aS'ADV'
I3
tp742
sI257
(S'de_mani\xc3\xa8re_\xc3\xa0'
(lp743
S'de'
p744
aS'mani\xc3\xa8re'
p745
aS'\xc3\xa0'
p746
aS'P'
I3
tp747
sI258
(S'de_mise'
(lp748
S'de'
p749
aS'mise'
p750
aS'ADV'
I2
tp751
sI259
(S'de_moins'
(lp752
S'de'
p753
aS'moins'
p754
aS'ADV'
I2
tp755
sI261
(S'de_moins_en_moins'
(lp756
S'de'
p757
aS'moins'
p758
aS'en'
p759
aS'moins'
p760
aS'ADV'
I4
tp761
sI262
(S'de_moiti\xc3\xa9'
(lp762
S'de'
p763
aS'moiti\xc3\xa9'
p764
aS'ADV'
I2
tp765
sI263
(S'de_m\xc3\xaame'
(lp766
S'de'
p767
aS'm\xc3\xaame'
p768
aS'ADV'
I2
tp769
sI264
(S'de_m\xc3\xaame_que'
(lp770
S'de'
p771
aS'm\xc3\xaame'
p772
aS'que'
p773
aS'CS'
I3
tp774
sI266
(S'de_nature_\xc3\xa0'
(lp775
S'de'
p776
aS'nature'
p777
aS'\xc3\xa0'
p778
aS'P'
I3
tp779
sI267
(S'de_nouveau'
(lp780
S'de'
p781
aS'nouveau'
p782
aS'ADV'
I2
tp783
sI268
(S'de_nuit'
(lp784
S'de'
p785
aS'nuit'
p786
aS'ADV'
I2
tp787
sI269
(S'de_par'
(lp788
S'de'
p789
aS'par'
p790
aS'P'
I2
tp791
sI271
(S'de_plein_fouet'
(lp792
S'de'
p793
aS'plein'
p794
aS'fouet'
p795
aS'ADV'
I3
tp796
sI272
(S'de_plus'
(lp797
S'de'
p798
aS'plus'
p799
aS'ADV'
I2
tp800
sI273
(S'de_plus_belle'
(lp801
S'de'
p802
aS'plus'
p803
aS'belle'
p804
aS'ADV'
I3
tp805
sI275
(S'de_plus_en_plus'
(lp806
S'de'
p807
aS'plus'
p808
aS'en'
p809
aS'plus'
p810
aS'ADV'
I4
tp811
sI276
(S'de_pointe'
(lp812
S'de'
p813
aS'pointe'
p814
aS'ADJ'
I2
tp815
sI277
(S'de_pr\xc3\xa8s'
(lp816
S'de'
p817
aS'pr\xc3\xa8s'
p818
aS'ADV'
I2
tp819
sI278
(S'de_suite'
(lp820
S'de'
p821
aS'suite'
p822
aS'ADV'
I2
tp823
sI279
(S'de_surcro\xc3\xaet'
(lp824
S'de'
p825
aS'surcro\xc3\xaet'
p826
aS'ADV'
I2
tp827
sI282
(S'de_temps_en_temps'
(lp828
S'de'
p829
aS'temps'
p830
aS'en'
p831
aS'temps'
p832
aS'ADV'
I4
tp833
sI284
(S'de_toute_fa\xc3\xa7on'
(lp834
S'de'
p835
aS'toute'
p836
aS'fa\xc3\xa7on'
p837
aS'ADV'
I3
tp838
sI285
(S'de_type'
(lp839
S'de'
p840
aS'type'
p841
aS'P'
I2
tp842
sI286
(S'de_t\xc3\xaate'
(lp843
S'de'
p844
aS't\xc3\xaate'
p845
aS'ADV'
I2
tp846
sI288
(S'depuis_peu'
(lp847
S'depuis'
p848
aS'peu'
p849
aS'ADV'
I2
tp850
sI289
(S'depuis_que'
(lp851
S'depuis'
p852
aS'que'
p853
aS'CS'
I2
tp854
sI291
(S'des_plus'
(lp855
S'des'
p856
aS'plus'
p857
aS'ADV'
I2
tp858
sI293
(S'deux_cents'
(lp859
S'deux'
p860
aS'cents'
p861
aS'DET'
I2
tp862
sI296
(S'du_c\xc3\xb4t\xc3\xa9_de'
(lp863
S'du'
p864
aS'c\xc3\xb4t\xc3\xa9'
p865
aS'de'
p866
aS'P'
I3
tp867
sI297
(S'du_c\xc3\xb4t\xc3\xa9_des'
(lp868
S'du'
p869
aS'c\xc3\xb4t\xc3\xa9'
p870
aS'des'
p871
aS'P'
I3
tp872
sI299
(S"du_fait_d'"
(lp873
S'du'
p874
aS'fait'
p875
aS"d'"
p876
aS'P'
I3
tp877
sI300
(S'du_fait_de'
(lp878
S'du'
p879
aS'fait'
p880
aS'de'
p881
aS'P'
I3
tp882
sI303
(S'du_jour_au_lendemain'
(lp883
S'du'
p884
aS'jour'
p885
aS'au'
p886
aS'lendemain'
p887
aS'ADV'
I4
tp888
sI304
(S'du_moins'
(lp889
S'du'
p890
aS'moins'
p891
aS'ADV'
I2
tp892
sI305
(S'du_reste'
(lp893
S'du'
p894
aS'reste'
p895
aS'ADV'
I2
tp896
sI306
(S'du_tout'
(lp897
S'du'
p898
aS'tout'
p899
aS'ADV'
I2
tp900
sI308
(S'd\xc3\xa8s_lors'
(lp901
S'd\xc3\xa8s'
p902
aS'lors'
p903
aS'ADV'
I2
tp904
sI309
(S'd\xc3\xa8s_lors_que'
(lp905
S'd\xc3\xa8s'
p906
aS'lors'
p907
aS'que'
p908
aS'CS'
I3
tp909
sI310
(S"d\xc3\xa8s_qu'"
(lp910
S'd\xc3\xa8s'
p911
aS"qu'"
p912
aS'CS'
I2
tp913
sI311
(S'd\xc3\xa8s_que'
(lp914
S'd\xc3\xa8s'
p915
aS'que'
p916
aS'CS'
I2
tp917
sI313
(S'en_apparence'
(lp918
S'en'
p919
aS'apparence'
p920
aS'ADV'
I2
tp921
sI314
(S'en_arri\xc3\xa8re'
(lp922
S'en'
p923
aS'arri\xc3\xa8re'
p924
aS'ADV'
I2
tp925
sI315
(S'en_attente'
(lp926
S'en'
p927
aS'attente'
p928
aS'ADV'
I2
tp929
sI316
(S'en_avant'
(lp930
S'en'
p931
aS'avant'
p932
aS'ADV'
I2
tp933
sI317
(S'en_baisse'
(lp934
S'en'
p935
aS'baisse'
p936
aS'ADV'
I2
tp937
sI318
(S'en_baisse_de'
(lp938
S'en'
p939
aS'baisse'
p940
aS'de'
p941
aS'P'
I3
tp942
sI319
(S'en_bloc'
(lp943
S'en'
p944
aS'bloc'
p945
aS'ADV'
I2
tp946
sI321
(S"en_cas_d'"
(lp947
S'en'
p948
aS'cas'
p949
aS"d'"
p950
aS'P'
I3
tp951
sI322
(S'en_cas_de'
(lp952
S'en'
p953
aS'cas'
p954
aS'de'
p955
aS'P'
I3
tp956
sI323
(S'en_cause'
(lp957
S'en'
p958
aS'cause'
p959
aS'ADV'
I2
tp960
sI326
(S'en_ce_qui_concerne'
(lp961
S'en'
p962
aS'ce'
p963
aS'qui'
p964
aS'concerne'
p965
aS'P'
I4
tp966
sI327
(S'en_ce_sens'
(lp967
S'en'
p968
aS'ce'
p969
aS'sens'
p970
aS'ADV'
I3
tp971
sI328
(S'en_charge'
(lp972
S'en'
p973
aS'charge'
p974
aS'ADV'
I2
tp975
sI329
(S'en_commun'
(lp976
S'en'
p977
aS'commun'
p978
aS'ADV'
I2
tp979
sI330
(S'en_compte'
(lp980
S'en'
p981
aS'compte'
p982
aS'ADV'
I2
tp983
sI331
(S'en_continu'
(lp984
S'en'
p985
aS'continu'
p986
aS'ADV'
I2
tp987
sI332
(S'en_cours'
(lp988
S'en'
p989
aS'cours'
p990
aS'ADV'
I2
tp991
sI333
(S"en_cours_d'"
(lp992
S'en'
p993
aS'cours'
p994
aS"d'"
p995
aS'P'
I3
tp996
sI334
(S'en_cours_de'
(lp997
S'en'
p998
aS'cours'
p999
aS'de'
p1000
aS'P'
I3
tp1001
sI335
(S'en_danger'
(lp1002
S'en'
p1003
aS'danger'
p1004
aS'ADV'
I2
tp1005
sI336
(S'en_date'
(lp1006
S'en'
p1007
aS'date'
p1008
aS'ADV'
I2
tp1009
sI338
(S'en_dehors_de'
(lp1010
S'en'
p1011
aS'dehors'
p1012
aS'de'
p1013
aS'P'
I3
tp1014
sI340
(S'en_dessous_des'
(lp1015
S'en'
p1016
aS'dessous'
p1017
aS'des'
p1018
aS'P'
I3
tp1019
sI342
(S'en_de\xc3\xa7\xc3\xa0_de'
(lp1020
S'en'
p1021
aS'de\xc3\xa7\xc3\xa0'
p1022
aS'de'
p1023
aS'P'
I3
tp1024
sI344
(S'en_direction_de'
(lp1025
S'en'
p1026
aS'direction'
p1027
aS'de'
p1028
aS'P'
I3
tp1029
sI345
(S'en_douceur'
(lp1030
S'en'
p1031
aS'douceur'
p1032
aS'ADV'
I2
tp1033
sI346
(S'en_d\xc3\xa9finitive'
(lp1034
S'en'
p1035
aS'd\xc3\xa9finitive'
p1036
aS'ADV'
I2
tp1037
sI348
(S"en_d\xc3\xa9pit_d'"
(lp1038
S'en'
p1039
aS'd\xc3\xa9pit'
p1040
aS"d'"
p1041
aS'P'
I3
tp1042
sI349
(S'en_d\xc3\xa9pit_de'
(lp1043
S'en'
p1044
aS'd\xc3\xa9pit'
p1045
aS'de'
p1046
aS'P'
I3
tp1047
sI350
(S'en_d\xc3\xa9pit_des'
(lp1048
S'en'
p1049
aS'd\xc3\xa9pit'
p1050
aS'des'
p1051
aS'P'
I3
tp1052
sI351
(S'en_d\xc3\xa9veloppement'
(lp1053
S'en'
p1054
aS'd\xc3\xa9veloppement'
p1055
aS'ADV'
I2
tp1056
sI352
(S'en_effet'
(lp1057
S'en'
p1058
aS'effet'
p1059
aS'ADV'
I2
tp1060
sI353
(S'en_esp\xc3\xa8ces'
(lp1061
S'en'
p1062
aS'esp\xc3\xa8ces'
p1063
aS'ADV'
I2
tp1064
sI354
(S'en_fait'
(lp1065
S'en'
p1066
aS'fait'
p1067
aS'ADV'
I2
tp1068
sI355
(S'en_fanfare'
(lp1069
S'en'
p1070
aS'fanfare'
p1071
aS'ADV'
I2
tp1072
sI357
(S"en_faveur_d'"
(lp1073
S'en'
p1074
aS'faveur'
p1075
aS"d'"
p1076
aS'P'
I3
tp1077
sI358
(S'en_faveur_de'
(lp1078
S'en'
p1079
aS'faveur'
p1080
aS'de'
p1081
aS'P'
I3
tp1082
sI359
(S'en_faveur_des'
(lp1083
S'en'
p1084
aS'faveur'
p1085
aS'des'
p1086
aS'P'
I3
tp1087
sI360
(S'en_faveur_du'
(lp1088
S'en'
p1089
aS'faveur'
p1090
aS'du'
p1091
aS'P'
I3
tp1092
sI362
(S"en_fin_d'"
(lp1093
S'en'
p1094
aS'fin'
p1095
aS"d'"
p1096
aS'P'
I3
tp1097
sI363
(S'en_fin_de'
(lp1098
S'en'
p1099
aS'fin'
p1100
aS'de'
p1101
aS'P'
I3
tp1102
sI365
(S'en_fonction_de'
(lp1103
S'en'
p1104
aS'fonction'
p1105
aS'de'
p1106
aS'P'
I3
tp1107
sI366
(S'en_fonction_des'
(lp1108
S'en'
p1109
aS'fonction'
p1110
aS'des'
p1111
aS'P'
I3
tp1112
sI367
(S'en_fonction_du'
(lp1113
S'en'
p1114
aS'fonction'
p1115
aS'du'
p1116
aS'P'
I3
tp1117
sI368
(S'en_fraude'
(lp1118
S'en'
p1119
aS'fraude'
p1120
aS'ADV'
I2
tp1121
sI370
(S'en_grande_partie'
(lp1122
S'en'
p1123
aS'grande'
p1124
aS'partie'
p1125
aS'ADV'
I3
tp1126
sI371
(S'en_gros'
(lp1127
S'en'
p1128
aS'gros'
p1129
aS'ADV'
I2
tp1130
sI372
(S'en_g\xc3\xa9n\xc3\xa9ral'
(lp1131
S'en'
p1132
aS'g\xc3\xa9n\xc3\xa9ral'
p1133
aS'ADV'
I2
tp1134
sI373
(S'en_hausse'
(lp1135
S'en'
p1136
aS'hausse'
p1137
aS'ADV'
I2
tp1138
sI374
(S'en_jeu'
(lp1139
S'en'
p1140
aS'jeu'
p1141
aS'ADV'
I2
tp1142
sI376
(S'en_la_mati\xc3\xa8re'
(lp1143
S'en'
p1144
aS'la'
p1145
aS'mati\xc3\xa8re'
p1146
aS'ADV'
I3
tp1147
sI378
(S'en_liaison_avec'
(lp1148
S'en'
p1149
aS'liaison'
p1150
aS'avec'
p1151
aS'P'
I3
tp1152
sI380
(S"en_mati\xc3\xa8re_d'"
(lp1153
S'en'
p1154
aS'mati\xc3\xa8re'
p1155
aS"d'"
p1156
aS'P'
I3
tp1157
sI381
(S'en_mati\xc3\xa8re_de'
(lp1158
S'en'
p1159
aS'mati\xc3\xa8re'
p1160
aS'de'
p1161
aS'P'
I3
tp1162
sI383
(S"en_mesure_d'"
(lp1163
S'en'
p1164
aS'mesure'
p1165
aS"d'"
p1166
aS'P'
I3
tp1167
sI384
(S'en_moins'
(lp1168
S'en'
p1169
aS'moins'
p1170
aS'ADV'
I2
tp1171
sI385
(S'en_moyenne'
(lp1172
S'en'
p1173
aS'moyenne'
p1174
aS'ADV'
I2
tp1175
sI387
(S'en_m\xc3\xaame_temps'
(lp1176
S'en'
p1177
aS'm\xc3\xaame'
p1178
aS'temps'
p1179
aS'ADV'
I3
tp1180
sI388
(S"en_m\xc3\xaame_temps_qu'"
(lp1181
S'en'
p1182
aS'm\xc3\xaame'
p1183
aS'temps'
p1184
aS"qu'"
p1185
aS'CS'
I4
tp1186
sI389
(S'en_m\xc3\xaame_temps_que'
(lp1187
S'en'
p1188
aS'm\xc3\xaame'
p1189
aS'temps'
p1190
aS'que'
p1191
aS'CS'
I4
tp1192
sI390
(S'en_nature'
(lp1193
S'en'
p1194
aS'nature'
p1195
aS'ADV'
I2
tp1196
sI391
(S'en_outre'
(lp1197
S'en'
p1198
aS'outre'
p1199
aS'ADV'
I2
tp1200
sI392
(S'en_particulier'
(lp1201
S'en'
p1202
aS'particulier'
p1203
aS'ADV'
I2
tp1204
sI393
(S'en_partie'
(lp1205
S'en'
p1206
aS'partie'
p1207
aS'ADV'
I2
tp1208
sI395
(S'en_passant_par'
(lp1209
S'en'
p1210
aS'passant'
p1211
aS'par'
p1212
aS'P'
I3
tp1213
sI397
(S'en_passe_de'
(lp1214
S'en'
p1215
aS'passe'
p1216
aS'de'
p1217
aS'P'
I3
tp1218
sI398
(S'en_permanence'
(lp1219
S'en'
p1220
aS'permanence'
p1221
aS'ADV'
I2
tp1222
sI399
(S'en_place'
(lp1223
S'en'
p1224
aS'place'
p1225
aS'ADV'
I2
tp1226
sI400
(S'en_plus'
(lp1227
S'en'
p1228
aS'plus'
p1229
aS'ADV'
I2
tp1230
sI401
(S'en_plus_des'
(lp1231
S'en'
p1232
aS'plus'
p1233
aS'des'
p1234
aS'P'
I3
tp1235
sI403
(S'en_premier_lieu'
(lp1236
S'en'
p1237
aS'premier'
p1238
aS'lieu'
p1239
aS'ADV'
I3
tp1240
sI404
(S'en_principe'
(lp1241
S'en'
p1242
aS'principe'
p1243
aS'ADV'
I2
tp1244
sI405
(S'en_priorit\xc3\xa9'
(lp1245
S'en'
p1246
aS'priorit\xc3\xa9'
p1247
aS'ADV'
I2
tp1248
sI406
(S'en_priv\xc3\xa9'
(lp1249
S'en'
p1250
aS'priv\xc3\xa9'
p1251
aS'ADV'
I2
tp1252
sI408
(S'en_proie_\xc3\xa0'
(lp1253
S'en'
p1254
aS'proie'
p1255
aS'\xc3\xa0'
p1256
aS'P'
I3
tp1257
sI409
(S'en_propre'
(lp1258
S'en'
p1259
aS'propre'
p1260
aS'ADV'
I2
tp1261
sI411
(S'en_pr\xc3\xa9sence_de'
(lp1262
S'en'
p1263
aS'pr\xc3\xa9sence'
p1264
aS'de'
p1265
aS'P'
I3
tp1266
sI413
(S'en_quelque_sorte'
(lp1267
S'en'
p1268
aS'quelque'
p1269
aS'sorte'
p1270
aS'ADV'
I3
tp1271
sI414
(S'en_question'
(lp1272
S'en'
p1273
aS'question'
p1274
aS'ADV'
I2
tp1275
sI416
(S'en_qu\xc3\xaate_de'
(lp1276
S'en'
p1277
aS'qu\xc3\xaate'
p1278
aS'de'
p1279
aS'P'
I3
tp1280
sI417
(S'en_raison'
(lp1281
S'en'
p1282
aS'raison'
p1283
aS'P'
I2
tp1284
sI418
(S"en_raison_d'"
(lp1285
S'en'
p1286
aS'raison'
p1287
aS"d'"
p1288
aS'P'
I3
tp1289
sI419
(S'en_raison_de'
(lp1290
S'en'
p1291
aS'raison'
p1292
aS'de'
p1293
aS'P'
I3
tp1294
sI420
(S'en_raison_des'
(lp1295
S'en'
p1296
aS'raison'
p1297
aS'des'
p1298
aS'P'
I3
tp1299
sI421
(S'en_raison_du'
(lp1300
S'en'
p1301
aS'raison'
p1302
aS'du'
p1303
aS'P'
I3
tp1304
sI423
(S'en_rase_campagne'
(lp1305
S'en'
p1306
aS'rase'
p1307
aS'campagne'
p1308
aS'ADV'
I3
tp1309
sI424
(S'en_retrait'
(lp1310
S'en'
p1311
aS'retrait'
p1312
aS'ADV'
I2
tp1313
sI425
(S'en_revanche'
(lp1314
S'en'
p1315
aS'revanche'
p1316
aS'ADV'
I2
tp1317
sI426
(S'en_r\xc3\xa9alit\xc3\xa9'
(lp1318
S'en'
p1319
aS'r\xc3\xa9alit\xc3\xa9'
p1320
aS'ADV'
I2
tp1321
sI427
(S'en_service'
(lp1322
S'en'
p1323
aS'service'
p1324
aS'ADV'
I2
tp1325
sI428
(S'en_silence'
(lp1326
S'en'
p1327
aS'silence'
p1328
aS'ADV'
I2
tp1329
sI429
(S'en_soi'
(lp1330
S'en'
p1331
aS'soi'
p1332
aS'ADV'
I2
tp1333
sI430
(S'en_stagnation'
(lp1334
S'en'
p1335
aS'stagnation'
p1336
aS'ADV'
I2
tp1337
sI431
(S'en_substance'
(lp1338
S'en'
p1339
aS'substance'
p1340
aS'ADV'
I2
tp1341
sI432
(S'en_surface'
(lp1342
S'en'
p1343
aS'surface'
p1344
aS'ADV'
I2
tp1345
sI433
(S'en_s\xc3\xa9rie'
(lp1346
S'en'
p1347
aS's\xc3\xa9rie'
p1348
aS'ADV'
I2
tp1349
sI435
(S'en_tant_que'
(lp1350
S'en'
p1351
aS'tant'
p1352
aS'que'
p1353
aS'P'
I3
tp1354
sI437
(S"en_termes_d'"
(lp1355
S'en'
p1356
aS'termes'
p1357
aS"d'"
p1358
aS'P'
I3
tp1359
sI438
(S'en_termes_de'
(lp1360
S'en'
p1361
aS'termes'
p1362
aS'de'
p1363
aS'P'
I3
tp1364
sI439
(S'en_tout'
(lp1365
S'en'
p1366
aS'tout'
p1367
aS'ADV'
I2
tp1368
sI440
(S'en_tout_cas'
(lp1369
S'en'
p1370
aS'tout'
p1371
aS'cas'
p1372
aS'ADV'
I3
tp1373
sI442
(S'en_train_de'
(lp1374
S'en'
p1375
aS'train'
p1376
aS'de'
p1377
aS'P'
I3
tp1378
sI443
(S'en_t\xc3\xaate'
(lp1379
S'en'
p1380
aS't\xc3\xaate'
p1381
aS'P'
I2
tp1382
sI444
(S'en_t\xc3\xaate_des'
(lp1383
S'en'
p1384
aS't\xc3\xaate'
p1385
aS'des'
p1386
aS'P'
I3
tp1387
sI445
(S'en_vain'
(lp1388
S'en'
p1389
aS'vain'
p1390
aS'ADV'
I2
tp1391
sI446
(S'en_vente'
(lp1392
S'en'
p1393
aS'vente'
p1394
aS'ADV'
I2
tp1395
sI448
(S'en_vertu_de'
(lp1396
S'en'
p1397
aS'vertu'
p1398
aS'de'
p1399
aS'P'
I3
tp1400
sI449
(S'en_vigueur'
(lp1401
S'en'
p1402
aS'vigueur'
p1403
aS'ADV'
I2
tp1404
sI451
(S"en_voie_d'"
(lp1405
S'en'
p1406
aS'voie'
p1407
aS"d'"
p1408
aS'P'
I3
tp1409
sI452
(S'en_voie_de'
(lp1410
S'en'
p1411
aS'voie'
p1412
aS'de'
p1413
aS'P'
I3
tp1414
sI453
(S'en_voie_de_d\xc3\xa9veloppement'
(lp1415
S'en'
p1416
aS'voie'
p1417
aS'de'
p1418
aS'd\xc3\xa9veloppement'
p1419
aS'ADJ'
I4
tp1420
sI455
(S"en_vue_d'"
(lp1421
S'en'
p1422
aS'vue'
p1423
aS"d'"
p1424
aS'P'
I3
tp1425
sI456
(S'en_vue_de'
(lp1426
S'en'
p1427
aS'vue'
p1428
aS'de'
p1429
aS'P'
I3
tp1430
sI457
(S'en_vue_du'
(lp1431
S'en'
p1432
aS'vue'
p1433
aS'du'
p1434
aS'P'
I3
tp1435
sI459
(S"en_\xc3\xa9change_d'"
(lp1436
S'en'
p1437
aS'\xc3\xa9change'
p1438
aS"d'"
p1439
aS'P'
I3
tp1440
sI460
(S'en_\xc3\xa9change_de'
(lp1441
S'en'
p1442
aS'\xc3\xa9change'
p1443
aS'de'
p1444
aS'P'
I3
tp1445
sI462
(S'entre_autres'
(lp1446
S'entre'
p1447
aS'autres'
p1448
aS'ADV'
I2
tp1449
sI464
(S'et_aussi'
(lp1450
S'et'
p1451
aS'aussi'
p1452
aS'CC'
I2
tp1453
sI465
(S'et_m\xc3\xaame'
(lp1454
S'et'
p1455
aS'm\xc3\xaame'
p1456
aS'CC'
I2
tp1457
sI467
(S'face_au'
(lp1458
S'face'
p1459
aS'au'
p1460
aS'P'
I2
tp1461
sI468
(S'face_aux'
(lp1462
S'face'
p1463
aS'aux'
p1464
aS'P'
I2
tp1465
sI469
(S'face_\xc3\xa0'
(lp1466
S'face'
p1467
aS'\xc3\xa0'
p1468
aS'P'
I2
tp1469
sI471
(S"faute_d'"
(lp1470
S'faute'
p1471
aS"d'"
p1472
aS'P'
I2
tp1473
sI472
(S'faute_de'
(lp1474
S'faute'
p1475
aS'de'
p1476
aS'P'
I2
tp1477
sI474
(S'grand_public'
(lp1478
S'grand'
p1479
aS'public'
p1480
aS'ADJ'
I2
tp1481
sI476
(S'grosso_modo'
(lp1482
S'grosso'
p1483
aS'modo'
p1484
aS'ADV'
I2
tp1485
sI478
(S'gr\xc3\xa2ce_au'
(lp1486
S'gr\xc3\xa2ce'
p1487
aS'au'
p1488
aS'P'
I2
tp1489
sI479
(S'gr\xc3\xa2ce_aux'
(lp1490
S'gr\xc3\xa2ce'
p1491
aS'aux'
p1492
aS'P'
I2
tp1493
sI480
(S'gr\xc3\xa2ce_\xc3\xa0'
(lp1494
S'gr\xc3\xa2ce'
p1495
aS'\xc3\xa0'
p1496
aS'P'
I2
tp1497
sI482
(S'hors_de'
(lp1498
S'hors'
p1499
aS'de'
p1500
aS'P'
I2
tp1501
sI483
(S'hors_du'
(lp1502
S'hors'
p1503
aS'du'
p1504
aS'P'
I2
tp1505
sI486
(S'ici_et_l\xc3\xa0'
(lp1506
S'ici'
p1507
aS'et'
p1508
aS'l\xc3\xa0'
p1509
aS'ADV'
I3
tp1510
sI489
(S'il_est_vrai'
(lp1511
S'il'
p1512
aS'est'
p1513
aS'vrai'
p1514
aS'ADV'
I3
tp1515
sI491
(S'il_y_a'
(lp1516
S'il'
p1517
aS'y'
aS'a'
aS'P'
I3
tp1518
sI493
(S'in_extremis'
(lp1519
S'in'
p1520
aS'extremis'
p1521
aS'ADV'
I2
tp1522
sI495
(S'jamais_vu'
(lp1523
S'jamais'
p1524
aS'vu'
p1525
aS'NC'
I2
tp1526
sI497
(S'la_plupart'
(lp1527
S'la'
p1528
aS'plupart'
p1529
aS'PRO'
I2
tp1530
sI498
(S'la_plupart_des'
(lp1531
S'la'
p1532
aS'plupart'
p1533
aS'des'
p1534
aS'P'
I3
tp1535
sI499
(S'la_veille'
(lp1536
S'la'
p1537
aS'veille'
p1538
aS'ADV'
I2
tp1539
sI502
(S'le_cas_\xc3\xa9ch\xc3\xa9ant'
(lp1540
S'le'
p1541
aS'cas'
p1542
aS'\xc3\xa9ch\xc3\xa9ant'
p1543
aS'ADV'
I3
tp1544
sI504
(S'le_peu_de'
(lp1545
S'le'
p1546
aS'peu'
p1547
aS'de'
p1548
aS'DET'
I3
tp1549
sI505
(S'le_plus'
(lp1550
S'le'
p1551
aS'plus'
p1552
aS'ADV'
I2
tp1553
sI506
(S'le_plus_souvent'
(lp1554
S'le'
p1555
aS'plus'
p1556
aS'souvent'
p1557
aS'ADV'
I3
tp1558
sI508
(S'le_temps_de'
(lp1559
S'le'
p1560
aS'temps'
p1561
aS'de'
p1562
aS'P'
I3
tp1563
sI510
(S"loin_d'"
(lp1564
S'loin'
p1565
aS"d'"
p1566
aS'P'
I2
tp1567
sI511
(S'loin_de'
(lp1568
S'loin'
p1569
aS'de'
p1570
aS'P'
I2
tp1571
sI512
(S'loin_des'
(lp1572
S'loin'
p1573
aS'des'
p1574
aS'P'
I2
tp1575
sI514
(S"lors_d'"
(lp1576
S'lors'
p1577
aS"d'"
p1578
aS'P'
I2
tp1579
sI515
(S'lors_de'
(lp1580
S'lors'
p1581
aS'de'
p1582
aS'P'
I2
tp1583
sI516
(S'lors_des'
(lp1584
S'lors'
p1585
aS'des'
p1586
aS'P'
I2
tp1587
sI517
(S'lors_du'
(lp1588
S'lors'
p1589
aS'du'
p1590
aS'P'
I2
tp1591
sI519
(S'mais_aussi'
(lp1592
S'mais'
p1593
aS'aussi'
p1594
aS'CC'
I2
tp1595
sI521
(S'malgr\xc3\xa9_tout'
(lp1596
S'malgr\xc3\xa9'
p1597
aS'tout'
p1598
aS'ADV'
I2
tp1599
sI524
(S'manque_\xc3\xa0_gagner'
(lp1600
S'manque'
p1601
aS'\xc3\xa0'
p1602
aS'gagner'
p1603
aS'NC'
I3
tp1604
sI527
(S'mise_en_forme'
(lp1605
S'mise'
p1606
aS'en'
p1607
aS'forme'
p1608
aS'NC'
I3
tp1609
sI529
(S'moins_de'
(lp1610
S'moins'
p1611
aS'de'
p1612
aS'P'
I2
tp1613
sI532
(S'm\xc3\xa9tier_\xc3\xa0_tisser'
(lp1614
S'm\xc3\xa9tier'
p1615
aS'\xc3\xa0'
p1616
aS'tisser'
p1617
aS'NC'
I3
tp1618
sI535
(S'm\xc3\xa9tiers_\xc3\xa0_tisser'
(lp1619
S'm\xc3\xa9tiers'
p1620
aS'\xc3\xa0'
p1621
aS'tisser'
p1622
aS'NC'
I3
tp1623
sI537
(S"m\xc3\xaame_s'"
(lp1624
S'm\xc3\xaame'
p1625
aS"s'"
p1626
aS'CS'
I2
tp1627
sI538
(S'm\xc3\xaame_si'
(lp1628
S'm\xc3\xaame'
p1629
aS'si'
p1630
aS'CS'
I2
tp1631
sI540
(S'ne_pas'
(lp1632
S'ne'
p1633
aS'pas'
p1634
aS'ADV'
I2
tp1635
sI541
(S'ne_plus'
(lp1636
S'ne'
p1637
aS'plus'
p1638
aS'ADV'
I2
tp1639
sI543
(S"nombre_d'"
(lp1640
S'nombre'
p1641
aS"d'"
p1642
aS'DET'
I2
tp1643
sI544
(S'nombre_de'
(lp1644
S'nombre'
p1645
aS'de'
p1646
aS'DET'
I2
tp1647
sI546
(S'non_plus'
(lp1648
S'non'
p1649
aS'plus'
p1650
aS'ADV'
I2
tp1651
sI547
(S'non_seulement'
(lp1652
S'non'
p1653
aS'seulement'
p1654
aS'ADV'
I2
tp1655
sI549
(S'ou_bien'
(lp1656
S'ou'
p1657
aS'bien'
p1658
aS'CC'
I2
tp1659
sI550
(S'ou_bien_encore'
(lp1660
S'ou'
p1661
aS'bien'
p1662
aS'encore'
p1663
aS'CC'
I3
tp1664
sI552
(S'par_ailleurs'
(lp1665
S'par'
p1666
aS'ailleurs'
p1667
aS'ADV'
I2
tp1668
sI553
(S'par_avance'
(lp1669
S'par'
p1670
aS'avance'
p1671
aS'ADV'
I2
tp1672
sI554
(S'par_c\xc3\xa2ble'
(lp1673
S'par'
p1674
aS'c\xc3\xa2ble'
p1675
aS'ADV'
I2
tp1676
sI555
(S'par_d\xc3\xa9finition'
(lp1677
S'par'
p1678
aS'd\xc3\xa9finition'
p1679
aS'ADV'
I2
tp1680
sI556
(S'par_exemple'
(lp1681
S'par'
p1682
aS'exemple'
p1683
aS'ADV'
I2
tp1684
sI557
(S'par_hasard'
(lp1685
S'par'
p1686
aS'hasard'
p1687
aS'ADV'
I2
tp1688
sI559
(S'par_la_suite'
(lp1689
S'par'
p1690
aS'la'
p1691
aS'suite'
p1692
aS'ADV'
I3
tp1693
sI561
(S'par_le_pass\xc3\xa9'
(lp1694
S'par'
p1695
aS'le'
p1696
aS'pass\xc3\xa9'
p1697
aS'ADV'
I3
tp1698
sI563
(S"par_peur_d'"
(lp1699
S'par'
p1700
aS'peur'
p1701
aS"d'"
p1702
aS'P'
I3
tp1703
sI565
(S'par_rapport_au'
(lp1704
S'par'
p1705
aS'rapport'
p1706
aS'au'
p1707
aS'P'
I3
tp1708
sI566
(S'par_rapport_aux'
(lp1709
S'par'
p1710
aS'rapport'
p1711
aS'aux'
p1712
aS'P'
I3
tp1713
sI567
(S'par_rapport_\xc3\xa0'
(lp1714
S'par'
p1715
aS'rapport'
p1716
aS'\xc3\xa0'
p1717
aS'P'
I3
tp1718
sI569
(S'par_suite_de'
(lp1719
S'par'
p1720
aS'suite'
p1721
aS'de'
p1722
aS'P'
I3
tp1723
sI570
(S'par_trop'
(lp1724
S'par'
p1725
aS'trop'
p1726
aS'ADV'
I2
tp1727
sI571
(S'par_t\xc3\xa9l\xc3\xa9phone'
(lp1728
S'par'
p1729
aS't\xc3\xa9l\xc3\xa9phone'
p1730
aS'ADV'
I2
tp1731
sI573
(S"parce_qu'"
(lp1732
S'parce'
p1733
aS"qu'"
p1734
aS'CS'
I2
tp1735
sI574
(S'parce_que'
(lp1736
S'parce'
p1737
aS'que'
p1738
aS'CS'
I2
tp1739
sI577
(S'pas_du_tout'
(lp1740
S'pas'
p1741
aS'du'
p1742
aS'tout'
p1743
aS'ADV'
I3
tp1744
sI578
(S'pas_encore'
(lp1745
S'pas'
p1746
aS'encore'
p1747
aS'ADV'
I2
tp1748
sI579
(S'pas_moins'
(lp1749
S'pas'
p1750
aS'moins'
p1751
aS'ADV'
I2
tp1752
sI581
(S'pendant_que'
(lp1753
S'pendant'
p1754
aS'que'
p1755
aS'CS'
I2
tp1756
sI584
(S'permis_de_conduire'
(lp1757
S'permis'
p1758
aS'de'
p1759
aS'conduire'
p1760
aS'NC'
I3
tp1761
sI588
(S'petites_et_moyennes_entreprises'
(lp1762
S'petites'
p1763
aS'et'
p1764
aS'moyennes'
p1765
aS'entreprises'
p1766
aS'NC'
I4
tp1767
sI591
(S'peu_ou_prou'
(lp1768
S'peu'
p1769
aS'ou'
p1770
aS'prou'
p1771
aS'ADV'
I3
tp1772
sI593
(S'peu_\xc3\xa0_peu'
(lp1773
S'peu'
p1774
aS'\xc3\xa0'
p1775
aS'peu'
p1776
aS'ADV'
I3
tp1777
sI595
(S"plus_d'"
(lp1778
S'plus'
p1779
aS"d'"
p1780
aS'P'
I2
tp1781
sI596
(S'plus_de'
(lp1782
S'plus'
p1783
aS'de'
p1784
aS'P'
I2
tp1785
sI597
(S'plus_du'
(lp1786
S'plus'
p1787
aS'du'
p1788
aS'P'
I2
tp1789
sI598
(S'plus_encore'
(lp1790
S'plus'
p1791
aS'encore'
p1792
aS'ADV'
I2
tp1793
sI600
(S'plus_ou_moins'
(lp1794
S'plus'
p1795
aS'ou'
p1796
aS'moins'
p1797
aS'ADV'
I3
tp1798
sI601
(S"plus_qu'"
(lp1799
S'plus'
p1800
aS"qu'"
p1801
aS'ADV'
I2
tp1802
sI602
(S'plus_que'
(lp1803
S'plus'
p1804
aS'que'
p1805
aS'ADV'
I2
tp1806
sI603
(S'plus_que_jamais'
(lp1807
S'plus'
p1808
aS'que'
p1809
aS'jamais'
p1810
aS'ADV'
I3
tp1811
sI604
(S'plus_tard'
(lp1812
S'plus'
p1813
aS'tard'
p1814
aS'ADV'
I2
tp1815
sI606
(S'plut\xc3\xb4t_que'
(lp1816
S'plut\xc3\xb4t'
p1817
aS'que'
p1818
aS'CS'
I2
tp1819
sI608
(S'pour_autant'
(lp1820
S'pour'
p1821
aS'autant'
p1822
aS'ADV'
I2
tp1823
sI610
(S'pour_cause_de'
(lp1824
S'pour'
p1825
aS'cause'
p1826
aS'de'
p1827
aS'P'
I3
tp1828
sI612
(S'pour_la_plupart'
(lp1829
S'pour'
p1830
aS'la'
p1831
aS'plupart'
p1832
aS'ADV'
I3
tp1833
sI614
(S'pour_la_premi\xc3\xa8re_fois'
(lp1834
S'pour'
p1835
aS'la'
p1836
aS'premi\xc3\xa8re'
p1837
aS'fois'
p1838
aS'ADV'
I4
tp1839
sI616
(S'pour_le_moins'
(lp1840
S'pour'
p1841
aS'le'
p1842
aS'moins'
p1843
aS'ADV'
I3
tp1844
sI618
(S'pour_leur_part'
(lp1845
S'pour'
p1846
aS'leur'
p1847
aS'part'
p1848
aS'ADV'
I3
tp1849
sI619
(S"pour_qu'"
(lp1850
S'pour'
p1851
aS"qu'"
p1852
aS'CS'
I2
tp1853
sI620
(S'pour_que'
(lp1854
S'pour'
p1855
aS'que'
p1856
aS'CS'
I2
tp1857
sI622
(S'pour_sa_part'
(lp1858
S'pour'
p1859
aS'sa'
p1860
aS'part'
p1861
aS'ADV'
I3
tp1862
sI625
(S'prix_de_revient'
(lp1863
S'prix'
p1864
aS'de'
p1865
aS'revient'
p1866
aS'NC'
I3
tp1867
sI627
(S"pr\xc3\xa8s_d'"
(lp1868
S'pr\xc3\xa8s'
p1869
aS"d'"
p1870
aS'P'
I2
tp1871
sI628
(S'pr\xc3\xa8s_de'
(lp1872
S'pr\xc3\xa8s'
p1873
aS'de'
p1874
aS'P'
I2
tp1875
sI629
(S'pr\xc3\xa8s_des'
(lp1876
S'pr\xc3\xa8s'
p1877
aS'des'
p1878
aS'P'
I2
tp1879
sI630
(S'pr\xc3\xa8s_du'
(lp1880
S'pr\xc3\xa8s'
p1881
aS'du'
p1882
aS'P'
I2
tp1883
sI633
(S'purement_et_simplement'
(lp1884
S'purement'
p1885
aS'et'
p1886
aS'simplement'
p1887
aS'ADV'
I3
tp1888
sI635
(S'quand_m\xc3\xaame'
(lp1889
S'quand'
p1890
aS'm\xc3\xaame'
p1891
aS'ADV'
I2
tp1892
sI637
(S'quant_aux'
(lp1893
S'quant'
p1894
aS'aux'
p1895
aS'P'
I2
tp1896
sI638
(S'quant_\xc3\xa0'
(lp1897
S'quant'
p1898
aS'\xc3\xa0'
p1899
aS'P'
I2
tp1900
sI641
(S'quatre_cent_mille'
(lp1901
S'quatre'
p1902
aS'cent'
p1903
aS'mille'
p1904
aS'DET'
I3
tp1905
sI643
(S'quelque_chose'
(lp1906
S'quelque'
p1907
aS'chose'
p1908
aS'PRO'
I2
tp1909
sI644
(S'quelque_peu'
(lp1910
S'quelque'
p1911
aS'peu'
p1912
aS'ADV'
I2
tp1913
sI645
(S'quelque_temps'
(lp1914
S'quelque'
p1915
aS'temps'
p1916
aS'ADV'
I2
tp1917
sI647
(S'quitte_\xc3\xa0'
(lp1918
S'quitte'
p1919
aS'\xc3\xa0'
p1920
aS'P'
I2
tp1921
sI650
(S'sans_aucun_doute'
(lp1922
S'sans'
p1923
aS'aucun'
p1924
aS'doute'
p1925
aS'ADV'
I3
tp1926
sI651
(S'sans_compter'
(lp1927
S'sans'
p1928
aS'compter'
p1929
aS'P'
I2
tp1930
sI652
(S'sans_doute'
(lp1931
S'sans'
p1932
aS'doute'
p1933
aS'ADV'
I2
tp1934
sI653
(S'sans_emploi'
(lp1935
S'sans'
p1936
aS'emploi'
p1937
aS'ADJ'
I2
tp1938
sI654
(S'sans_pr\xc3\xa9c\xc3\xa9dent'
(lp1939
S'sans'
p1940
aS'pr\xc3\xa9c\xc3\xa9dent'
p1941
aS'ADV'
I2
tp1942
sI655
(S"sans_qu'"
(lp1943
S'sans'
p1944
aS"qu'"
p1945
aS'CS'
I2
tp1946
sI656
(S'sans_que'
(lp1947
S'sans'
p1948
aS'que'
p1949
aS'CS'
I2
tp1950
sI658
(S'sauf_\xc3\xa0'
(lp1951
S'sauf'
p1952
aS'\xc3\xa0'
p1953
aS'P'
I2
tp1954
sI660
(S'scala_mobile'
(lp1955
S'scala'
p1956
aS'mobile'
p1957
aS'ET'
I2
tp1958
sI662
(S'sept_cents'
(lp1959
S'sept'
p1960
aS'cents'
p1961
aS'DET'
I2
tp1962
sI664
(S'si_peu'
(lp1963
S'si'
p1964
aS'peu'
p1965
aS'ADV'
I2
tp1966
sI665
(S'si_possible'
(lp1967
S'si'
p1968
aS'possible'
p1969
aS'ADV'
I2
tp1970
sI668
(S'sine_qua_non'
(lp1971
S'sine'
p1972
aS'qua'
p1973
aS'non'
p1974
aS'ADV'
I3
tp1975
sI670
(S'six_mille'
(lp1976
S'six'
p1977
aS'mille'
p1978
aS'DET'
I2
tp1979
sI673
(S"sous_forme_d'"
(lp1980
S'sous'
p1981
aS'forme'
p1982
aS"d'"
p1983
aS'P'
I3
tp1984
sI674
(S'sous_forme_de'
(lp1985
S'sous'
p1986
aS'forme'
p1987
aS'de'
p1988
aS'P'
I3
tp1989
sI677
(S"sous_la_forme_d'"
(lp1990
S'sous'
p1991
aS'la'
p1992
aS'forme'
p1993
aS"d'"
p1994
aS'P'
I4
tp1995
sI679
(S'sous_la_pression_de'
(lp1996
S'sous'
p1997
aS'la'
p1998
aS'pression'
p1999
aS'de'
p2000
aS'P'
I4
tp2001
sI680
(S'sous_la_pression_des'
(lp2002
S'sous'
p2003
aS'la'
p2004
aS'pression'
p2005
aS'des'
p2006
aS'P'
I4
tp2007
sI683
(S'sous_le_nom_de'
(lp2008
S'sous'
p2009
aS'le'
p2010
aS'nom'
p2011
aS'de'
p2012
aS'P'
I4
tp2013
sI684
(S'sous_licence'
(lp2014
S'sous'
p2015
aS'licence'
p2016
aS'ADV'
I2
tp2017
sI685
(S'sous_peu'
(lp2018
S'sous'
p2019
aS'peu'
p2020
aS'ADV'
I2
tp2021
sI686
(S'sous_surveillance'
(lp2022
S'sous'
p2023
aS'surveillance'
p2024
aS'ADV'
I2
tp2025
sI688
(S'stricto_sensu'
(lp2026
S'stricto'
p2027
aS'sensu'
p2028
aS'ADV'
I2
tp2029
sI690
(S'success_story'
(lp2030
S'success'
p2031
aS'story'
p2032
aS'ET'
I2
tp2033
sI693
(S'sur_ce_point'
(lp2034
S'sur'
p2035
aS'ce'
p2036
aS'point'
p2037
aS'ADV'
I3
tp2038
sI695
(S'sur_fond_de'
(lp2039
S'sur'
p2040
aS'fond'
p2041
aS'de'
p2042
aS'P'
I3
tp2043
sI698
(S'sur_la_voie_de'
(lp2044
S'sur'
p2045
aS'la'
p2046
aS'voie'
p2047
aS'de'
p2048
aS'P'
I4
tp2049
sI700
(S'sur_le_terrain'
(lp2050
S'sur'
p2051
aS'le'
p2052
aS'terrain'
p2053
aS'ADV'
I3
tp2054
sI702
(S'sur_les_rails'
(lp2055
S'sur'
p2056
aS'les'
p2057
aS'rails'
p2058
aS'ADV'
I3
tp2059
sI703
(S'sur_les_rangs'
(lp2060
S'sur'
p2061
aS'les'
p2062
aS'rangs'
p2063
aS'ADV'
I3
tp2064
sI704
(S'sur_place'
(lp2065
S'sur'
p2066
aS'place'
p2067
aS'ADV'
I2
tp2068
sI705
(S'sur_terre'
(lp2069
S'sur'
p2070
aS'terre'
p2071
aS'ADV'
I2
tp2072
sI707
(S"tandis_qu'"
(lp2073
S'tandis'
p2074
aS"qu'"
p2075
aS'CS'
I2
tp2076
sI708
(S'tandis_que'
(lp2077
S'tandis'
p2078
aS'que'
p2079
aS'CS'
I2
tp2080
sI710
(S"tant_qu'"
(lp2081
S'tant'
p2082
aS"qu'"
p2083
aS'CS'
I2
tp2084
sI711
(S'tant_que'
(lp2085
S'tant'
p2086
aS'que'
p2087
aS'CS'
I2
tp2088
sI716
(S'taux_au_jour_le_jour'
(lp2089
S'taux'
p2090
aS'au'
p2091
aS'jour'
p2092
aS'le'
p2093
aS'jour'
p2094
aS'NC'
I5
tp2095
sI718
(S'toujours_pas'
(lp2096
S'toujours'
p2097
aS'pas'
p2098
aS'ADV'
I2
tp2099
sI721
(S'tour_\xc3\xa0_tour'
(lp2100
S'tour'
p2101
aS'\xc3\xa0'
p2102
aS'tour'
p2103
aS'ADV'
I3
tp2104
sI723
(S'tous_azimuts'
(lp2105
S'tous'
p2106
aS'azimuts'
p2107
aS'ADV'
I2
tp2108
sI727
(S'tout_au_long_de'
(lp2109
S'tout'
p2110
aS'au'
p2111
aS'long'
p2112
aS'de'
p2113
aS'P'
I4
tp2114
sI728
(S'tout_au_long_du'
(lp2115
S'tout'
p2116
aS'au'
p2117
aS'long'
p2118
aS'du'
p2119
aS'P'
I4
tp2120
sI729
(S'tout_au_moins'
(lp2121
S'tout'
p2122
aS'au'
p2123
aS'moins'
p2124
aS'ADV'
I3
tp2125
sI731
(S'tout_de_m\xc3\xaame'
(lp2126
S'tout'
p2127
aS'de'
p2128
aS'm\xc3\xaame'
p2129
aS'ADV'
I3
tp2130
sI732
(S'tout_juste'
(lp2131
S'tout'
p2132
aS'juste'
p2133
aS'ADV'
I2
tp2134
sI734
(S'tout_le_monde'
(lp2135
S'tout'
p2136
aS'le'
p2137
aS'monde'
p2138
aS'PRO'
I3
tp2139
sI736
(S'tout_\xc3\xa0_fait'
(lp2140
S'tout'
p2141
aS'\xc3\xa0'
p2142
aS'fait'
p2143
aS'ADV'
I3
tp2144
sI738
(S'tout_\xc3\xa0_la_fois'
(lp2145
S'tout'
p2146
aS'\xc3\xa0'
p2147
aS'la'
p2148
aS'fois'
p2149
aS'ADV'
I4
tp2150
sI740
(S'trois_mille'
(lp2151
S'trois'
p2152
aS'mille'
p2153
aS'DET'
I2
tp2154
sI742
(S'un_peu'
(lp2155
S'un'
p2156
aS'peu'
p2157
aS'ADV'
I2
tp2158
sI743
(S'un_peu_plus'
(lp2159
S'un'
p2160
aS'peu'
p2161
aS'plus'
p2162
aS'ADV'
I3
tp2163
sI744
(S'un_peu_plus_de'
(lp2164
S'un'
p2165
aS'peu'
p2166
aS'plus'
p2167
aS'de'
p2168
aS'ADV'
I4
tp2169
sI746
(S'une_fois'
(lp2170
S'une'
p2171
aS'fois'
p2172
aS'ADV'
I2
tp2173
sI748
(S'une_sorte_de'
(lp2174
S'une'
p2175
aS'sorte'
p2176
aS'de'
p2177
aS'DET'
I3
tp2178
sI750
(S'y_compris'
(lp2179
S'y'
aS'compris'
p2180
aS'P'
I2
tp2181
sI753
(S'\xc3\xa0_bon_march\xc3\xa9'
(lp2182
S'\xc3\xa0'
p2183
aS'bon'
p2184
aS'march\xc3\xa9'
p2185
aS'ADV'
I3
tp2186
sI755
(S'\xc3\xa0_bout_de'
(lp2187
S'\xc3\xa0'
p2188
aS'bout'
p2189
aS'de'
p2190
aS'P'
I3
tp2191
sI756
(S'\xc3\xa0_bout_de_souffle'
(lp2192
S'\xc3\xa0'
p2193
aS'bout'
p2194
aS'de'
p2195
aS'souffle'
p2196
aS'ADV'
I4
tp2197
sI758
(S'\xc3\xa0_cause_de'
(lp2198
S'\xc3\xa0'
p2199
aS'cause'
p2200
aS'de'
p2201
aS'P'
I3
tp2202
sI759
(S'\xc3\xa0_cause_du'
(lp2203
S'\xc3\xa0'
p2204
aS'cause'
p2205
aS'du'
p2206
aS'P'
I3
tp2207
sI761
(S'\xc3\xa0_ce_point'
(lp2208
S'\xc3\xa0'
p2209
aS'ce'
p2210
aS'point'
p2211
aS'ADV'
I3
tp2212
sI762
(S'\xc3\xa0_ce_propos'
(lp2213
S'\xc3\xa0'
p2214
aS'ce'
p2215
aS'propos'
p2216
aS'ADV'
I3
tp2217
sI763
(S'\xc3\xa0_ce_sujet'
(lp2218
S'\xc3\xa0'
p2219
aS'ce'
p2220
aS'sujet'
p2221
aS'ADV'
I3
tp2222
sI765
(S'\xc3\xa0_cet_\xc3\xa9gard'
(lp2223
S'\xc3\xa0'
p2224
aS'cet'
p2225
aS'\xc3\xa9gard'
p2226
aS'ADV'
I3
tp2227
sI767
(S'\xc3\xa0_ciel_ouvert'
(lp2228
S'\xc3\xa0'
p2229
aS'ciel'
p2230
aS'ouvert'
p2231
aS'ADV'
I3
tp2232
sI769
(S'\xc3\xa0_commencer_par'
(lp2233
S'\xc3\xa0'
p2234
aS'commencer'
p2235
aS'par'
p2236
aS'P'
I3
tp2237
sI771
(S'\xc3\xa0_compter_du'
(lp2238
S'\xc3\xa0'
p2239
aS'compter'
p2240
aS'du'
p2241
aS'P'
I3
tp2242
sI773
(S'\xc3\xa0_condition_que'
(lp2243
S'\xc3\xa0'
p2244
aS'condition'
p2245
aS'que'
p2246
aS'CS'
I3
tp2247
sI775
(S'\xc3\xa0_coup_s\xc3\xbbr'
(lp2248
S'\xc3\xa0'
p2249
aS'coup'
p2250
aS's\xc3\xbbr'
p2251
aS'ADV'
I3
tp2252
sI777
(S'\xc3\xa0_coups_de'
(lp2253
S'\xc3\xa0'
p2254
aS'coups'
p2255
aS'de'
p2256
aS'P'
I3
tp2257
sI779
(S'\xc3\xa0_court_terme'
(lp2258
S'\xc3\xa0'
p2259
aS'court'
p2260
aS'terme'
p2261
aS'ADV'
I3
tp2262
sI781
(S"\xc3\xa0_c\xc3\xb4t\xc3\xa9_d'"
(lp2263
S'\xc3\xa0'
p2264
aS'c\xc3\xb4t\xc3\xa9'
p2265
aS"d'"
p2266
aS'P'
I3
tp2267
sI782
(S'\xc3\xa0_c\xc3\xb4t\xc3\xa9_de'
(lp2268
S'\xc3\xa0'
p2269
aS'c\xc3\xb4t\xc3\xa9'
p2270
aS'de'
p2271
aS'P'
I3
tp2272
sI783
(S'\xc3\xa0_distance'
(lp2273
S'\xc3\xa0'
p2274
aS'distance'
p2275
aS'ADV'
I2
tp2276
sI785
(S'\xc3\xa0_d\xc3\xa9faut_de'
(lp2277
S'\xc3\xa0'
p2278
aS'd\xc3\xa9faut'
p2279
aS'de'
p2280
aS'P'
I3
tp2281
sI786
(S'\xc3\xa0_flot'
(lp2282
S'\xc3\xa0'
p2283
aS'flot'
p2284
aS'ADV'
I2
tp2285
sI787
(S'\xc3\xa0_fond'
(lp2286
S'\xc3\xa0'
p2287
aS'fond'
p2288
aS'ADV'
I2
tp2289
sI789
(S"\xc3\xa0_force_d'"
(lp2290
S'\xc3\xa0'
p2291
aS'force'
p2292
aS"d'"
p2293
aS'P'
I3
tp2294
sI791
(S'\xc3\xa0_haut_potentiel'
(lp2295
S'\xc3\xa0'
p2296
aS'haut'
p2297
aS'potentiel'
p2298
aS'ADV'
I3
tp2299
sI793
(S'\xc3\xa0_hauteur_de'
(lp2300
S'\xc3\xa0'
p2301
aS'hauteur'
p2302
aS'de'
p2303
aS'P'
I3
tp2304
sI795
(S'\xc3\xa0_juste_titre'
(lp2305
S'\xc3\xa0'
p2306
aS'juste'
p2307
aS'titre'
p2308
aS'ADV'
I3
tp2309
sI797
(S'\xc3\xa0_la_baisse'
(lp2310
S'\xc3\xa0'
p2311
aS'la'
p2312
aS'baisse'
p2313
aS'ADV'
I3
tp2314
sI799
(S'\xc3\xa0_la_charge_de'
(lp2315
S'\xc3\xa0'
p2316
aS'la'
p2317
aS'charge'
p2318
aS'de'
p2319
aS'P'
I4
tp2320
sI800
(S'\xc3\xa0_la_charge_du'
(lp2321
S'\xc3\xa0'
p2322
aS'la'
p2323
aS'charge'
p2324
aS'du'
p2325
aS'P'
I4
tp2326
sI802
(S"\xc3\xa0_la_faveur_d'"
(lp2327
S'\xc3\xa0'
p2328
aS'la'
p2329
aS'faveur'
p2330
aS"d'"
p2331
aS'P'
I4
tp2332
sI803
(S'\xc3\xa0_la_fin'
(lp2333
S'\xc3\xa0'
p2334
aS'la'
p2335
aS'fin'
p2336
aS'P'
I3
tp2337
sI804
(S'\xc3\xa0_la_fin_de'
(lp2338
S'\xc3\xa0'
p2339
aS'la'
p2340
aS'fin'
p2341
aS'de'
p2342
aS'P'
I4
tp2343
sI805
(S'\xc3\xa0_la_fin_des'
(lp2344
S'\xc3\xa0'
p2345
aS'la'
p2346
aS'fin'
p2347
aS'des'
p2348
aS'P'
I4
tp2349
sI806
(S'\xc3\xa0_la_fin_du'
(lp2350
S'\xc3\xa0'
p2351
aS'la'
p2352
aS'fin'
p2353
aS'du'
p2354
aS'P'
I4
tp2355
sI807
(S'\xc3\xa0_la_fois'
(lp2356
S'\xc3\xa0'
p2357
aS'la'
p2358
aS'fois'
p2359
aS'ADV'
I3
tp2360
sI808
(S'\xc3\xa0_la_hausse'
(lp2361
S'\xc3\xa0'
p2362
aS'la'
p2363
aS'hausse'
p2364
aS'ADV'
I3
tp2365
sI810
(S'\xc3\xa0_la_hauteur_des'
(lp2366
S'\xc3\xa0'
p2367
aS'la'
p2368
aS'hauteur'
p2369
aS'des'
p2370
aS'P'
I4
tp2371
sI811
(S'\xc3\xa0_la_main'
(lp2372
S'\xc3\xa0'
p2373
aS'la'
p2374
aS'main'
p2375
aS'ADV'
I3
tp2376
sI813
(S'\xc3\xa0_la_mesure_des'
(lp2377
S'\xc3\xa0'
p2378
aS'la'
p2379
aS'mesure'
p2380
aS'des'
p2381
aS'P'
I4
tp2382
sI815
(S"\xc3\xa0_la_recherche_d'"
(lp2383
S'\xc3\xa0'
p2384
aS'la'
p2385
aS'recherche'
p2386
aS"d'"
p2387
aS'P'
I4
tp2388
sI817
(S"\xc3\xa0_la_suite_d'"
(lp2389
S'\xc3\xa0'
p2390
aS'la'
p2391
aS'suite'
p2392
aS"d'"
p2393
aS'P'
I4
tp2394
sI818
(S'\xc3\xa0_la_suite_de'
(lp2395
S'\xc3\xa0'
p2396
aS'la'
p2397
aS'suite'
p2398
aS'de'
p2399
aS'P'
I4
tp2400
sI819
(S'\xc3\xa0_la_suite_des'
(lp2401
S'\xc3\xa0'
p2402
aS'la'
p2403
aS'suite'
p2404
aS'des'
p2405
aS'P'
I4
tp2406
sI820
(S'\xc3\xa0_la_suite_du'
(lp2407
S'\xc3\xa0'
p2408
aS'la'
p2409
aS'suite'
p2410
aS'du'
p2411
aS'P'
I4
tp2412
sI822
(S'\xc3\xa0_la_t\xc3\xaate_de'
(lp2413
S'\xc3\xa0'
p2414
aS'la'
p2415
aS't\xc3\xaate'
p2416
aS'de'
p2417
aS'P'
I4
tp2418
sI823
(S'\xc3\xa0_la_t\xc3\xaate_des'
(lp2419
S'\xc3\xa0'
p2420
aS'la'
p2421
aS't\xc3\xaate'
p2422
aS'des'
p2423
aS'P'
I4
tp2424
sI824
(S'\xc3\xa0_la_t\xc3\xaate_du'
(lp2425
S'\xc3\xa0'
p2426
aS'la'
p2427
aS't\xc3\xaate'
p2428
aS'du'
p2429
aS'P'
I4
tp2430
sI826
(S'\xc3\xa0_la_veille_de'
(lp2431
S'\xc3\xa0'
p2432
aS'la'
p2433
aS'veille'
p2434
aS'de'
p2435
aS'P'
I4
tp2436
sI828
(S'\xc3\xa0_leur_tour'
(lp2437
S'\xc3\xa0'
p2438
aS'leur'
p2439
aS'tour'
p2440
aS'ADV'
I3
tp2441
sI830
(S'\xc3\xa0_long_terme'
(lp2442
S'\xc3\xa0'
p2443
aS'long'
p2444
aS'terme'
p2445
aS'ADV'
I3
tp2446
sI832
(S'\xc3\xa0_mesure_que'
(lp2447
S'\xc3\xa0'
p2448
aS'mesure'
p2449
aS'que'
p2450
aS'CS'
I3
tp2451
sI834
(S"\xc3\xa0_moins_d'"
(lp2452
S'\xc3\xa0'
p2453
aS'moins'
p2454
aS"d'"
p2455
aS'P'
I3
tp2456
sI835
(S'\xc3\xa0_moins_de'
(lp2457
S'\xc3\xa0'
p2458
aS'moins'
p2459
aS'de'
p2460
aS'P'
I3
tp2461
sI836
(S'\xc3\xa0_moins_que'
(lp2462
S'\xc3\xa0'
p2463
aS'moins'
p2464
aS'que'
p2465
aS'CS'
I3
tp2466
sI837
(S'\xc3\xa0_moiti\xc3\xa9'
(lp2467
S'\xc3\xa0'
p2468
aS'moiti\xc3\xa9'
p2469
aS'ADV'
I2
tp2470
sI839
(S'\xc3\xa0_moyen_terme'
(lp2471
S'\xc3\xa0'
p2472
aS'moyen'
p2473
aS'terme'
p2474
aS'ADV'
I3
tp2475
sI840
(S'\xc3\xa0_niveau'
(lp2476
S'\xc3\xa0'
p2477
aS'niveau'
p2478
aS'ADV'
I2
tp2479
sI841
(S'\xc3\xa0_nouveau'
(lp2480
S'\xc3\xa0'
p2481
aS'nouveau'
p2482
aS'ADV'
I2
tp2483
sI842
(S'\xc3\xa0_part'
(lp2484
S'\xc3\xa0'
p2485
aS'part'
p2486
aS'P'
I2
tp2487
sI843
(S'\xc3\xa0_part_enti\xc3\xa8re'
(lp2488
S'\xc3\xa0'
p2489
aS'part'
p2490
aS'enti\xc3\xa8re'
p2491
aS'ADJ'
I3
tp2492
sI845
(S"\xc3\xa0_partir_d'"
(lp2493
S'\xc3\xa0'
p2494
aS'partir'
p2495
aS"d'"
p2496
aS'P'
I3
tp2497
sI846
(S'\xc3\xa0_partir_de'
(lp2498
S'\xc3\xa0'
p2499
aS'partir'
p2500
aS'de'
p2501
aS'P'
I3
tp2502
sI847
(S'\xc3\xa0_partir_des'
(lp2503
S'\xc3\xa0'
p2504
aS'partir'
p2505
aS'des'
p2506
aS'P'
I3
tp2507
sI848
(S'\xc3\xa0_partir_du'
(lp2508
S'\xc3\xa0'
p2509
aS'partir'
p2510
aS'du'
p2511
aS'P'
I3
tp2512
sI849
(S'\xc3\xa0_peine'
(lp2513
S'\xc3\xa0'
p2514
aS'peine'
p2515
aS'ADV'
I2
tp2516
sI850
(S'\xc3\xa0_perte'
(lp2517
S'\xc3\xa0'
p2518
aS'perte'
p2519
aS'ADV'
I2
tp2520
sI852
(S'\xc3\xa0_peu_pr\xc3\xa8s'
(lp2521
S'\xc3\xa0'
p2522
aS'peu'
p2523
aS'pr\xc3\xa8s'
p2524
aS'ADV'
I3
tp2525
sI855
(S'\xc3\xa0_port\xc3\xa9e_de_main'
(lp2526
S'\xc3\xa0'
p2527
aS'port\xc3\xa9e'
p2528
aS'de'
p2529
aS'main'
p2530
aS'ADV'
I4
tp2531
sI857
(S'\xc3\xa0_premi\xc3\xa8re_vue'
(lp2532
S'\xc3\xa0'
p2533
aS'premi\xc3\xa8re'
p2534
aS'vue'
p2535
aS'ADV'
I3
tp2536
sI859
(S"\xc3\xa0_propos_d'"
(lp2537
S'\xc3\xa0'
p2538
aS'propos'
p2539
aS"d'"
p2540
aS'P'
I3
tp2541
sI860
(S'\xc3\xa0_propos_de'
(lp2542
S'\xc3\xa0'
p2543
aS'propos'
p2544
aS'de'
p2545
aS'P'
I3
tp2546
sI861
(S'\xc3\xa0_propos_des'
(lp2547
S'\xc3\xa0'
p2548
aS'propos'
p2549
aS'des'
p2550
aS'P'
I3
tp2551
sI863
(S'\xc3\xa0_proximit\xc3\xa9_de'
(lp2552
S'\xc3\xa0'
p2553
aS'proximit\xc3\xa9'
p2554
aS'de'
p2555
aS'P'
I3
tp2556
sI864
(S'\xc3\xa0_pr\xc3\xa9sent'
(lp2557
S'\xc3\xa0'
p2558
aS'pr\xc3\xa9sent'
p2559
aS'ADV'
I2
tp2560
sI866
(S"\xc3\xa0_raison_d'"
(lp2561
S'\xc3\xa0'
p2562
aS'raison'
p2563
aS"d'"
p2564
aS'P'
I3
tp2565
sI867
(S'\xc3\xa0_raison_de'
(lp2566
S'\xc3\xa0'
p2567
aS'raison'
p2568
aS'de'
p2569
aS'P'
I3
tp2570
sI868
(S'\xc3\xa0_savoir'
(lp2571
S'\xc3\xa0'
p2572
aS'savoir'
p2573
aS'CC'
I2
tp2574
sI870
(S'\xc3\xa0_son_terme'
(lp2575
S'\xc3\xa0'
p2576
aS'son'
p2577
aS'terme'
p2578
aS'ADV'
I3
tp2579
sI871
(S'\xc3\xa0_son_tour'
(lp2580
S'\xc3\xa0'
p2581
aS'son'
p2582
aS'tour'
p2583
aS'ADV'
I3
tp2584
sI872
(S'\xc3\xa0_temps'
(lp2585
S'\xc3\xa0'
p2586
aS'temps'
p2587
aS'ADV'
I2
tp2588
sI873
(S'\xc3\xa0_terme'
(lp2589
S'\xc3\xa0'
p2590
aS'terme'
p2591
aS'ADV'
I2
tp2592
sI874
(S'\xc3\xa0_tort'
(lp2593
S'\xc3\xa0'
p2594
aS'tort'
p2595
aS'ADV'
I2
tp2596
sI876
(S'\xc3\xa0_tout_moment'
(lp2597
S'\xc3\xa0'
p2598
aS'tout'
p2599
aS'moment'
p2600
aS'ADV'
I3
tp2601
sI877
(S'\xc3\xa0_tout_prix'
(lp2602
S'\xc3\xa0'
p2603
aS'tout'
p2604
aS'prix'
p2605
aS'ADV'
I3
tp2606
sI878
(S'\xc3\xa0_travers'
(lp2607
S'\xc3\xa0'
p2608
aS'travers'
p2609
aS'P'
I2
tp2610
sI879
(S'\xc3\xa0_venir'
(lp2611
S'\xc3\xa0'
p2612
aS'venir'
p2613
aS'ADV'
I2
tp2614
sI880
(S'\xc3\xa0_vie'
(lp2615
S'\xc3\xa0'
p2616
aS'vie'
p2617
aS'ADV'
I2
tp2618
sI881
(S'\xc3\xa0_vue'
(lp2619
S'\xc3\xa0'
p2620
aS'vue'
p2621
aS'ADV'
I2
tp2622
ssS'transitions'
p2623
(dp2624
I0
(dp2625
g2097
I717
sg553
I191
sg1864
I623
sg17
I6
sg1541
I500
sg1593
I518
sg1528
I496
sg1577
I513
sg427
I139
sg1649
I545
sg692
I241
sg512
I170
sg2074
I706
sg557
I193
sg864
I294
sg1923
I648
sg2031
I689
sg1952
I657
sg919
I312
sg1483
I475
sg1499
I481
sg535
I182
sg1451
I463
sg1524
I494
sg1507
I484
sg1907
I642
sg1956
I659
sg1769
I589
sg848
I287
sg484
I161
sg530
I179
sg2035
I691
sg1625
I536
sg1471
I470
sg1754
I580
sg379
I122
sg1487
I477
sg467
I154
sg1758
I582
sg2101
I719
sg2106
I722
sg1779
I594
sg2171
I745
sg508
I168
sg1657
I548
sg1960
I661
sg407
I132
sg2110
I724
sg399
I129
sg1606
I525
sg2027
I687
sg1565
I509
sg50
I18
sg1611
I528
sg1972
I666
sg2183
I751
sg1601
I522
sg518
I174
sg1919
I646
sg423
I137
sg567
I197
sS'ainsi'
p2626
I10
sg1597
I520
sg1902
I639
sg479
I158
sg856
I290
sg584
I205
sg1821
I607
sg1981
I671
sg2156
I741
sg2090
I712
sg2082
I709
sg544
I187
sg1620
I533
sg13
I4
sg395
I127
sg1615
I530
sg58
I21
sg1512
I487
sg1520
I492
sg1733
I572
sg1666
I551
sg1869
I626
sg575
I200
sg579
I202
sg37
I13
sg1977
I669
sg1633
I539
sg1894
I636
sg860
I292
sg1479
I473
sg1641
I542
sg540
I185
sg1885
I631
sg1741
I575
sg902
I307
sg1890
I634
sS'a'
I1
sg1817
I605
sg2152
I739
sg1447
I461
sg447
I148
sg1459
I466
sg1964
I663
sg1763
I585
sS'y'
I749
sg526
I177
ssI1
(dp2627
S'priori'
p2628
I3
sg7
I2
ssI825
(dp2629
g2435
I826
ssI4
(dp2630
g14
I5
ssI699
(dp2631
g2053
I700
ssI6
(dp2632
g18
I7
sg22
I8
sg26
I9
ssI513
(dp2633
g1578
I514
sg1590
I517
sg1582
I515
sg1586
I516
ssI520
(dp2634
g1598
I521
ssI10
(dp2635
S'que'
p2636
I12
sS"qu'"
p2637
I11
ssI523
(dp2638
g1603
I524
ssI13
(dp2639
g47
I17
sg38
I14
sg43
I16
ssI14
(dp2640
g39
I15
ssI528
(dp2641
g1612
I529
ssI18
(dp2642
g55
I20
sg51
I19
ssI531
(dp2643
g1617
I532
ssI21
(dp2644
g309
I102
sg81
I31
sg279
I93
sg284
I95
sg170
I60
sg203
I70
sg375
I120
sg175
I62
sg198
I68
sg346
I111
sg207
I71
sg94
I35
sg160
I56
sg137
I45
sg275
I92
sg294
I98
sg270
I90
sg122
I41
sg371
I119
sg356
I115
sg64
I24
sg118
I40
sg142
I47
sg231
I79
sg211
I72
sg236
I81
sg240
I82
sg313
I103
sg86
I33
sg216
I74
sg194
I67
sg147
I49
sg75
I28
sg190
I66
sg90
I34
sg155
I54
sg166
I59
sg226
I77
sg245
I84
sg318
I105
sg351
I113
sg322
I106
sg59
I22
ssI22
(dp2645
g60
I23
ssI24
(dp2646
g70
I26
sg65
I25
ssI772
(dp2647
g2246
I773
ssI26
(dp2648
g71
I27
ssI539
(dp2649
g1634
I540
sg1638
I541
ssI28
(dp2650
g76
I29
ssI29
(dp2651
g77
I30
ssI542
(dp2652
g1642
I543
sg1646
I544
ssI31
(dp2653
g82
I32
ssI545
(dp2654
g1650
I546
sg1654
I547
ssI35
(dp2655
g99
I36
sg114
I39
sg104
I37
sg109
I38
ssI548
(dp2656
g1658
I549
ssI518
(dp2657
g1594
I519
ssI551
(dp2658
g1696
I560
sg1691
I558
sg1701
I562
sg1675
I554
sg1706
I564
sg1667
I552
sg1721
I568
sg1683
I556
sg1687
I557
sg1726
I570
sg1730
I571
sg1679
I555
sg1671
I553
ssI41
(dp2659
g133
I44
sg123
I42
sg128
I43
ssI45
(dp2660
g138
I46
ssI558
(dp2661
g1692
I559
ssI47
(dp2662
g143
I48
ssI560
(dp2663
g1697
I561
ssI49
(dp2664
g148
I50
ssI50
(dp2665
g149
I51
ssI51
(dp2666
g150
I52
ssI52
(dp2667
g151
I53
ssI54
(dp2668
g156
I55
ssI56
(dp2669
g161
I57
ssI57
(dp2670
g162
I58
ssI607
(dp2671
g1842
I615
sg1831
I611
sg1822
I608
sg1847
I617
sg1852
I619
sg1856
I620
sg1860
I621
sg1826
I609
ssI60
(dp2672
g171
I61
ssI522
(dp2673
g1602
I523
ssI62
(dp2674
g176
I63
sg181
I64
sg186
I65
ssI575
(dp2675
g1751
I579
sg1742
I576
sg1747
I578
ssI576
(dp2676
g1743
I577
ssI701
(dp2677
g2063
I703
sg2058
I702
ssI525
(dp2678
g1607
I526
ssI68
(dp2679
g199
I69
ssI694
(dp2680
g2042
I695
ssI582
(dp2681
g1759
I583
ssI583
(dp2682
g1760
I584
ssI72
(dp2683
g212
I73
ssI585
(dp2684
g1764
I586
ssI74
(dp2685
S'o\xc3\xb9'
p2686
I76
sg217
I75
ssI587
(dp2687
g1766
I588
ssI77
(dp2688
g227
I78
ssI590
(dp2689
g1771
I591
ssI79
(dp2690
g232
I80
ssI592
(dp2691
g1776
I593
ssI82
(dp2692
g241
I83
ssI84
(dp2693
g261
I88
sg250
I85
sg266
I89
sg255
I86
ssI526
(dp2694
g1608
I527
ssI86
(dp2695
g256
I87
ssI599
(dp2696
g1797
I600
ssI90
(dp2697
g271
I91
ssI93
(dp2698
g280
I94
ssI95
(dp2699
g285
I96
sg290
I97
ssI609
(dp2700
g1827
I610
ssI98
(dp2701
g305
I101
sg295
I99
sg300
I100
ssI611
(dp2702
g1832
I612
sg1837
I613
ssI613
(dp2703
g1838
I614
ssI103
(dp2704
g314
I104
ssI617
(dp2705
g1848
I618
ssI106
(dp2706
g327
I107
sg342
I110
sg332
I108
sg337
I109
ssI615
(dp2707
g1843
I616
ssI530
(dp2708
g1616
I531
ssI111
(dp2709
g347
I112
ssI624
(dp2710
g1866
I625
ssI113
(dp2711
g352
I114
ssI626
(dp2712
g1870
I627
sg1882
I630
sS'de'
p2713
I628
sg1878
I629
ssI115
(dp2714
g367
I118
sg357
I116
sg362
I117
ssI631
(dp2715
g1886
I632
ssI120
(dp2716
g376
I121
ssI122
(dp2717
g380
I123
sg392
I126
sg384
I124
sg388
I125
ssI636
(dp2718
g1895
I637
sg1899
I638
ssI127
(dp2719
g396
I128
ssI640
(dp2720
g1904
I641
ssI129
(dp2721
g404
I131
sg400
I130
ssI642
(dp2722
g1916
I645
sg1912
I644
sg1908
I643
ssI875
(dp2723
g2605
I877
sg2600
I876
ssI132
(dp2724
g408
I133
sg420
I136
sg412
I134
sg416
I135
ssI534
(dp2725
g1622
I535
ssI646
(dp2726
g1920
I647
ssI648
(dp2727
g1933
I652
sg1937
I653
sg1929
I651
sg1924
I649
sg1949
I656
sg1945
I655
sg1941
I654
ssI137
(dp2728
g424
I138
ssI139
(dp2729
g443
I146
sg438
I144
sg433
I142
sg428
I140
ssI140
(dp2730
g429
I141
ssI706
(dp2731
g2079
I708
sg2075
I707
ssI142
(dp2732
g434
I143
ssI621
(dp2733
g1861
I622
ssI144
(dp2734
g439
I145
ssI536
(dp2735
g1630
I538
sg1626
I537
ssI146
(dp2736
g444
I147
ssI659
(dp2737
g1957
I660
ssI148
(dp2738
g448
I149
sg464
I153
sg452
I150
sg460
I152
sg456
I151
ssI661
(dp2739
g1961
I662
ssI663
(dp2740
g1965
I664
sg1969
I665
ssI154
(dp2741
g472
I156
sg468
I155
sg476
I157
ssI623
(dp2742
g1865
I624
ssI692
(dp2743
g2037
I693
ssI669
(dp2744
g1978
I670
ssI158
(dp2745
g480
I159
ssI159
(dp2746
g481
I160
ssI672
(dp2747
g1983
I673
sg1988
I674
ssI161
(dp2748
g505
I167
sg485
I162
sg501
I166
sg497
I165
sg489
I163
sg493
I164
ssI675
(dp2749
g1999
I678
sg1993
I676
ssI602
(dp2750
g1810
I603
ssI678
(dp2751
g2000
I679
sg2006
I680
ssI568
(dp2752
g1722
I569
ssI168
(dp2753
g509
I169
ssI681
(dp2754
g2011
I682
ssI170
(dp2755
g513
I171
ssI171
(dp2756
g514
I172
ssI172
(dp2757
g515
I173
ssI174
(dp2758
g519
I175
sg523
I176
ssI687
(dp2759
g2028
I688
ssI177
(dp2760
g527
I178
ssI712
(dp2761
g2091
I713
ssI179
(dp2762
g531
I180
ssI180
(dp2763
g532
I181
ssI682
(dp2764
g2012
I683
ssI182
(dp2765
g536
I183
ssI183
(dp2766
g537
I184
ssI696
(dp2767
g2047
I697
ssI185
(dp2768
g541
I186
ssI187
(dp2769
g545
I188
sg550
I190
ssI188
(dp2770
g546
I189
ssI533
(dp2771
g1621
I534
ssI191
(dp2772
g554
I192
ssI193
(dp2773
g558
I194
ssI194
(dp2774
g559
I195
sg564
I196
ssI715
(dp2775
g2094
I716
ssI197
(dp2776
g568
I198
sg572
I199
ssI801
(dp2777
g2331
I802
ssI200
(dp2778
g576
I201
ssI713
(dp2779
g2092
I714
ssI202
(dp2780
g580
I203
ssI203
(dp2781
g581
I204
ssI205
(dp2782
g601
I213
sg595
I210
sg585
I206
sg682
I236
sg676
I233
sg590
I208
sg687
I238
ssI206
(dp2783
g586
I207
ssI717
(dp2784
g2098
I718
ssI208
(dp2785
g591
I209
ssI632
(dp2786
g1887
I633
ssI210
(dp2787
g596
I211
ssI211
(dp2788
g597
I212
ssI724
(dp2789
g2142
I735
sg2137
I733
sg2128
I730
sg2111
I725
sg2133
I732
ssI213
(dp2790
g662
I230
sg626
I220
sg632
I222
sg672
I232
sg608
I216
sg602
I214
sg667
I231
sg650
I226
sg656
I228
ssI214
(dp2791
g603
I215
ssI216
(dp2792
g609
I217
sg621
I219
sg615
I218
ssI689
(dp2793
g2032
I690
ssI730
(dp2794
g2129
I731
ssI719
(dp2795
g2102
I720
ssI220
(dp2796
g627
I221
ssI634
(dp2797
g1891
I635
ssI222
(dp2798
g645
I225
sg633
I223
sg639
I224
ssI549
(dp2799
g1663
I550
ssI720
(dp2800
g2103
I721
ssI226
(dp2801
g651
I227
ssI739
(dp2802
g2153
I740
ssI228
(dp2803
g657
I229
ssI741
(dp2804
g2157
I742
ssI742
(dp2805
g2162
I743
ssI743
(dp2806
g2168
I744
ssI233
(dp2807
g677
I234
ssI234
(dp2808
g678
I235
ssI747
(dp2809
g2177
I748
ssI236
(dp2810
g683
I237
ssI722
(dp2811
g2107
I723
ssI238
(dp2812
g688
I239
ssI239
(dp2813
g689
I240
ssI752
(dp2814
g2185
I753
ssI241
(dp2815
g706
I246
sg740
I254
sg702
I245
sg750
I258
sg697
I243
sg736
I253
sg845
I286
sg754
I259
sg790
I269
sg818
I277
sg714
I248
sg836
I283
sg822
I278
sg841
I285
sg768
I263
sg777
I265
sg764
I262
sg786
I268
sg830
I280
sg693
I242
sg826
I279
sg814
I276
sg782
I267
sg710
I247
sg794
I270
sg745
I256
sg799
I272
ssI754
(dp2816
g2190
I755
ssI243
(dp2817
g698
I244
ssI768
(dp2818
g2236
I769
ssI757
(dp2819
g2206
I759
sg2201
I758
ssI605
(dp2820
g1818
I606
ssI248
(dp2821
g719
I249
ssI249
(dp2822
g732
I252
sg720
I250
sg726
I251
ssI639
(dp2823
g1903
I640
ssI764
(dp2824
g2226
I765
ssI254
(dp2825
g741
I255
ssI725
(dp2826
g2124
I729
sg2112
I726
ssI256
(dp2827
g746
I257
ssI770
(dp2828
g2241
I771
ssI259
(dp2829
g759
I260
ssI260
(dp2830
g760
I261
ssI726
(dp2831
g2119
I728
sg2113
I727
ssI774
(dp2832
g2251
I775
ssI263
(dp2833
g773
I264
ssI776
(dp2834
g2256
I777
ssI265
(dp2835
g778
I266
ssI778
(dp2836
S'terme'
p2837
I779
ssI780
(dp2838
g2266
I781
sg2271
I782
ssI270
(dp2839
g795
I271
ssI272
(dp2840
g804
I273
sg809
I274
ssI274
(dp2841
g810
I275
ssI788
(dp2842
g2293
I789
ssI691
(dp2843
g2052
I699
sg2046
I696
sg2071
I705
sg2041
I694
sg2036
I692
sg2057
I701
sg2067
I704
ssI790
(dp2844
g2298
I791
ssI280
(dp2845
g831
I281
ssI281
(dp2846
g832
I282
ssI794
(dp2847
g2308
I795
ssI283
(dp2848
g837
I284
ssI796
(dp2849
g2386
I814
sg2375
I811
sg2380
I812
sg2416
I821
sg2359
I807
sg2434
I825
sg2313
I797
sg2318
I798
sg2330
I801
sg2392
I816
sg2364
I808
sg2336
I803
sg2369
I809
ssI589
(dp2850
g1770
I590
sg1775
I592
ssI287
(dp2851
g849
I288
sg853
I289
ssI676
(dp2852
g1994
I677
ssI290
(dp2853
g857
I291
ssI803
(dp2854
g2354
I806
sg2342
I804
sg2348
I805
ssI292
(dp2855
g861
I293
ssI294
(dp2856
g875
I298
sg891
I304
sg885
I301
sg899
I306
sg865
I295
sg895
I305
ssI295
(dp2857
g866
I296
sg871
I297
ssI809
(dp2858
g2370
I810
ssI298
(dp2859
g876
I299
sg881
I300
ssI812
(dp2860
g2381
I813
ssI301
(dp2861
g886
I302
ssI302
(dp2862
g887
I303
ssI733
(dp2863
g2138
I734
ssI816
(dp2864
g2393
I817
sg2411
I820
sg2399
I818
sg2405
I819
ssI709
(dp2865
g2087
I711
sg2083
I710
ssI307
(dp2866
g916
I311
sg912
I310
sg903
I308
ssI308
(dp2867
g908
I309
ssI821
(dp2868
g2429
I824
sg2417
I822
sg2423
I823
ssI649
(dp2869
g1925
I650
ssI312
(dp2870
g936
I317
sg1216
I396
sg924
I314
sg1307
I422
sg1145
I375
sg1394
I446
sg1357
I436
sg974
I328
sg945
I319
sg1155
I379
sg1095
I361
sg1312
I424
sg1407
I450
sg982
I330
sg1137
I373
sg1165
I382
sg1264
I410
sg1207
I393
sg1199
I391
sg1438
I458
sg1403
I449
sg1036
I346
sg1067
I354
sg1022
I341
sg986
I331
sg920
I313
sg1071
I355
sg1105
I364
sg1269
I412
sg1059
I352
sg1278
I415
sg1260
I409
sg959
I323
sg1178
I386
sg1336
I430
sg1012
I337
sg1195
I390
sg1032
I345
sg1423
I454
sg1141
I374
sg1243
I404
sg1229
I400
sg1255
I407
sg1328
I428
sg1004
I335
sg1332
I429
sg1390
I445
sg1174
I385
sg963
I324
sg928
I315
sS't\xc3\xaate'
p2871
I443
sg1170
I384
sg1324
I427
sg978
I329
sS'question'
p2872
I414
sg1027
I343
sg1340
I431
sg1055
I351
sg1251
I406
sg949
I320
sg1398
I447
sg1133
I372
sg1352
I434
sg1211
I394
sg1040
I347
sg1238
I402
sg1344
I432
sg1316
I425
sg1320
I426
sg1283
I417
sg1348
I433
sg1203
I392
sg990
I332
sg1247
I405
sg1221
I398
sg1150
I377
sg1075
I356
sg1367
I439
sg1124
I369
sg1120
I368
sg1008
I336
sg1129
I371
sg1017
I339
sg932
I316
sg1376
I441
sg1225
I399
sg1063
I353
ssI564
(dp2873
g1712
I566
sg1717
I567
sg1707
I565
ssI735
(dp2874
g2143
I736
sg2148
I737
ssI317
(dp2875
g941
I318
ssI831
(dp2876
g2450
I832
ssI320
(dp2877
g950
I321
sg955
I322
ssI833
(dp2878
g2455
I834
sg2460
I835
sg2465
I836
ssI324
(dp2879
g964
I325
sg970
I327
ssI325
(dp2880
g965
I326
ssI838
(dp2881
g2474
I839
ssI737
(dp2882
g2149
I738
ssI842
(dp2883
g2491
I843
ssI572
(dp2884
g1738
I574
sg1734
I573
ssI332
(dp2885
g995
I333
sg1000
I334
ssI337
(dp2886
g1013
I338
ssI339
(dp2887
g1018
I340
ssI341
(dp2888
g1023
I342
ssI854
(dp2889
g2530
I855
ssI343
(dp2890
g1028
I344
ssI856
(dp2891
g2535
I857
ssI858
(dp2892
g2540
I859
sg2545
I860
sg2550
I861
ssI347
(dp2893
g1041
I348
sg1046
I349
sg1051
I350
ssI862
(dp2894
g2555
I863
ssI865
(dp2895
g2564
I866
sg2569
I867
ssI827
(dp2896
g2440
I828
ssI356
(dp2897
g1076
I357
sg1091
I360
sg1081
I358
sg1086
I359
ssI869
(dp2898
g2578
I870
sg2583
I871
ssI766
(dp2899
g2231
I767
ssI657
(dp2900
g1953
I658
ssI361
(dp2901
g1096
I362
sg1101
I363
ssI745
(dp2902
g2176
I747
sg2172
I746
ssI364
(dp2903
g1116
I367
sg1106
I365
sg1111
I366
ssI814
(dp2904
g2387
I815
ssI369
(dp2905
g1125
I370
ssI375
(dp2906
g1146
I376
ssI377
(dp2907
g1151
I378
ssI379
(dp2908
g1156
I380
sg1161
I381
ssI382
(dp2909
g1166
I383
ssI386
(dp2910
g1179
I387
ssI387
(dp2911
g1191
I389
sg1185
I388
ssI394
(dp2912
g1212
I395
ssI396
(dp2913
g1217
I397
ssI749
(dp2914
S'compris'
p2915
I750
ssI400
(dp2916
g1234
I401
ssI402
(dp2917
g1239
I403
ssI407
(dp2918
g1256
I408
ssI580
(dp2919
g1755
I581
ssI410
(dp2920
g1265
I411
ssI751
(dp2921
g2250
I774
sg2292
I788
sg2599
I875
sg2230
I766
sg2559
I864
sg2288
I787
sg2210
I760
sg2577
I869
sg2563
I865
sg2515
I849
sg2454
I833
sS'court'
p2922
I778
sg2312
I796
sg2523
I851
sg2279
I784
sS'long'
p2923
I829
sg2595
I874
sg2255
I776
sg2189
I754
sg2200
I757
sg2302
I792
sS'venir'
p2924
I879
sg2235
I768
sg2617
I880
sg2275
I783
sg2554
I862
sg2297
I790
sg2469
I837
sg2587
I872
sg2591
I873
sg2225
I764
sg2573
I868
sg2519
I850
sg2265
I780
sg2473
I838
sg2245
I772
sg2482
I841
sg2240
I770
sg2609
I878
sg2621
I881
sg2307
I794
sg2449
I831
sg2478
I840
sg2534
I856
sg2284
I786
sg2495
I844
sg2528
I853
sg2486
I842
sg2439
I827
sg2184
I752
sg2539
I858
ssI412
(dp2925
g1270
I413
ssI666
(dp2926
g1973
I667
ssI415
(dp2927
g1279
I416
ssI417
(dp2928
g1288
I418
sg1303
I421
sg1293
I419
sg1298
I420
ssI798
(dp2929
g2325
I800
sg2319
I799
ssI667
(dp2930
g1974
I668
ssI422
(dp2931
g1308
I423
ssI792
(dp2932
g2303
I793
ssI671
(dp2933
g2010
I681
sg1982
I672
sg1992
I675
sg2020
I685
sg2024
I686
sg2016
I684
ssI434
(dp2934
g1353
I435
ssI755
(dp2935
g2196
I756
ssI436
(dp2936
g1358
I437
sg1363
I438
ssI439
(dp2937
g1372
I440
ssI441
(dp2938
g1377
I442
ssI443
(dp2939
g1386
I444
ssI586
(dp2940
g1765
I587
ssI447
(dp2941
g1399
I448
ssI450
(dp2942
g1408
I451
sg1413
I452
ssI829
(dp2943
S'terme'
p2944
I830
ssI452
(dp2945
g1419
I453
ssI454
(dp2946
g1424
I455
sg1434
I457
sg1429
I456
ssI714
(dp2947
g2093
I715
ssI697
(dp2948
g2048
I698
ssI458
(dp2949
g1439
I459
sg1444
I460
ssI461
(dp2950
g1448
I462
ssI844
(dp2951
g2496
I845
sg2511
I848
sg2501
I846
sg2506
I847
ssI463
(dp2952
g1452
I464
sg1456
I465
ssI760
(dp2953
g2216
I762
sg2221
I763
sg2211
I761
ssI466
(dp2954
g1464
I468
sg1468
I469
sg1460
I467
ssI470
(dp2955
g1472
I471
sg1476
I472
ssI473
(dp2956
g1480
I474
ssI851
(dp2957
g2524
I852
ssI475
(dp2958
g1484
I476
ssI477
(dp2959
g1492
I479
sg1496
I480
sg1488
I478
ssI481
(dp2960
g1504
I483
sg1500
I482
ssI484
(dp2961
g1508
I485
ssI485
(dp2962
g1509
I486
ssI487
(dp2963
S'y'
I490
sg1513
I488
ssI488
(dp2964
g1514
I489
ssI490
(dp2965
S'a'
I491
ssI492
(dp2966
g1521
I493
ssI594
(dp2967
g1780
I595
sS'de'
p2968
I596
sg1814
I604
sg1805
I602
sg1801
I601
sg1796
I599
sg1788
I597
sg1792
I598
ssI494
(dp2969
g1525
I495
ssI496
(dp2970
g1529
I497
sg1538
I499
ssI497
(dp2971
S'des'
p2972
I498
ssI562
(dp2973
g1702
I563
ssI500
(dp2974
g1542
I501
sg1547
I503
sg1561
I507
sg1552
I505
ssI501
(dp2975
g1543
I502
ssI503
(dp2976
g1548
I504
ssI505
(dp2977
g1557
I506
ssI507
(dp2978
g1562
I508
ssI509
(dp2979
g1566
I510
sg1570
I511
sg1574
I512
ssI784
(dp2980
g2280
I785
ssI853
(dp2981
g2529
I854
sssS'bounded'
p2982
I00
sb.