ccollections
defaultdict
p0
(c__builtin__
str
p1
tp2
Rp3
S'Feijo'
p4
S'Feij\xc3\xb3'
p5
sS'canicross'
p6
S'Cani-cross'
p7
sS'Cadeia'
p8
S'Macaco'
p9
sS'abondon'
p10
S'abandon'
p11
sS'R\xc3\xa9d\xc3\xa9l\xc3\xa9'
p12
S'R\xc3\xa9del\xc3\xa9'
p13
sS'1-050B'
p14
S'1-050 B'
p15
sS'Etude'
p16
S'\xc3\x89tude'
p17
sS'Corinos'
p18
S'Corrinos'
p19
sS'd\xc3\xa9c\xc3\xa8d\xc3\xa9'
p20
S'd\xc3\xa9c\xc3\xa9d\xc3\xa9'
p21
sS'pouuser'
p22
S'pousser'
p23
sS'Moureauxet'
p24
S'Moureaux et'
p25
sS'porno'
p26
S'fran\xc3\xa7ais'
p27
sS'constiu\xc3\xa9'
p28
S'constitu\xc3\xa9'
p29
sS'dotn'
p30
S'dont'
p31
sS'impr\xc3\xa9sionnant'
p32
S'impressionnant'
p33
sS'Gendaremrie'
p34
S'Gendarmerie'
p35
sS'aux'
p36
S'du'
p37
sS'cm3'
p38
S'cm 3'
p39
sS'bi\xc3\xa9nale'
p40
S'bi\xc3\xa9nnale'
p41
sS'mult\xc3\xa9m\xc3\xa9dia'
p42
S'multim\xc3\xa9dia'
p43
sS'utilise\xc3\xa9'
p44
S'utilis\xc3\xa9'
p45
sS'aavnt'
p46
S'avant'
p47
sS'recrouve'
p48
S'recouvre'
p49
sS'soit-m\xc3\xaame'
p50
S'soi-m\xc3\xaame'
p51
sS'Maneaux'
p52
S'Manteaux'
p53
sS'Elie'
p54
S'\xc3\x89lie'
p55
sS'Valle'
p56
S'Vall\xc3\xa9e'
p57
sS'Muntian'
p58
S'Mountian'
p59
sS'alcidae'
p60
S'Laridae'
p61
sS'schyzophr\xc3\xa8nie'
p62
S'schizophr\xc3\xa8nie'
p63
sS'St-Esprit'
p64
S'Saint-Esprit'
p65
sS'Jausovec'
p66
S'Jau\xc5\xa1ovec'
p67
sS'prore'
p68
S'propre'
p69
sS'Arnoul'
p70
S'Arnould'
p71
sS'japonnais'
p72
S'japonais'
p73
sS'turpitude'
p74
S'erreur'
p75
sS'diss\xc3\xa9min\xc3\xa9e'
p76
S'diss\xc3\xa9min\xc3\xa9s'
p77
sS'internantionales'
p78
S'internationales'
p79
sS'Rabil'
p80
S'ar-Rabil'
p81
sS'Kassar'
p82
S'Ksar'
p83
sS'Gn'
p84
S'Gen'
p85
sS'Goering'
p86
S'G\xc3\xb6ring'
p87
sS'divisioon'
p88
S'divisions'
p89
sS'Petrovich'
p90
S'Petrovitch'
p91
sS'engastrymiste'
p92
S'engastrimyste'
p93
sS'Muzillac100px'
p94
S'Muzillac15px'
p95
sS'milles'
p96
S'mille'
p97
sS'Avec'
p98
S'Ave'
p99
sS'maltrait\xc3\xa9'
p100
S'maltrait\xc3\xa9s'
p101
sS'Saint-Hilaire-du-Harcouet'
p102
S'Saint-Hilaire-du-Harcou\xc3\xabt'
p103
sS'amandes'
p104
S'amande'
p105
sS'mars-avriI'
p106
S'mars-avril'
p107
sS'D\xc3\xa9rg\xc3\xa9'
p108
S'Dege'
p109
sS'linkpar'
p110
S'link par'
p111
sS'd\xc3\xa9ductible'
p112
S'd\xc3\xa9ductibles'
p113
sS'n'
p114
S"n'"
p115
sS'Touranne'
p116
S'Touanne'
p117
sS'activit\xc3\xa9e'
p118
S'activit\xc3\xa9'
p119
sS'retrospectivement'
p120
S'r\xc3\xa9trospectivement'
p121
sS'S\xc3\xa9g\xc3\xa9la'
p122
S'S\xc3\xa9gu\xc3\xa9la'
p123
sS'd\xc3\xa9fences'
p124
S'd\xc3\xa9fenses'
p125
sS'olypiques'
p126
S'Olympiques'
p127
sS'immigr\xc3\xa9s'
p128
S'immigr\xc3\xa9'
p129
sS'trois\xc3\xa8me'
p130
S'troisi\xc3\xa8me'
p131
sS'suppos\xc3\xa9'
p132
S'supposer'
p133
sS'latechnique'
p134
S'la technique'
p135
sS'moceaux'
p136
S'morceaux'
p137
sS'ressayent'
p138
S'essayent'
p139
sS'grossit'
p140
S'grossi'
p141
sS'intentionel'
p142
S'intentionnel'
p143
sS'pornographie'
p144
S'mafia'
p145
sS'patr'
p146
S'par'
p147
sS'pokerle'
p148
S'poker le'
p149
sS'd\xc3\xa9p\xc3\xaache'
p150
S'p\xc3\xaache'
p151
sS'neveu'
p152
S'fils'
p153
sS'\xc3\xa9tatitasion'
p154
S'\xc3\xa9tatisation'
p155
sS'Rondstadt'
p156
S'Ronstadt'
p157
sS'affili\xc3\xa9e'
p158
S'affiliation\xc3\xa9e'
p159
sS'ach\xc3\xa8va'
p160
S'acheva'
p161
sS'R\xc3\xa4ikk\xc3\xb6nenR\xc3\xa4ikk\xc3\xb6nen'
p162
S'R\xc3\xa4ikk\xc3\xb6nen'
p163
sS'pati'
p164
S'parti'
p165
sS'Ernest'
p166
S'Georges'
p167
sS'100'
p168
S'7'
p169
sS'104'
p170
S'25'
p171
sS'Eveill\xc3\xa9s'
p172
S'\xc3\x89veill\xc3\xa9s'
p173
sS'Tonin\xc3\xa0-'
p174
S'Tonin\xc3\xa1-'
p175
sS', California'
p176
S'( Californie )'
p177
sS'raons'
p178
S'rayons'
p179
sS'emprisonn\xc3\xa9s'
p180
S'emprisonn\xc3\xa9'
p181
sS'Braud'
p182
S'B\xc3\xa9raud'
p183
sS'd\xc3\xa9cid\xc3\xa9mment'
p184
S'd\xc3\xa9cid\xc3\xa9ment'
p185
sS'nobilas'
p186
S'nobilitas'
p187
sS'emprisonn\xc3\xa9e'
p188
S'emprisonner'
p189
sS'tempr\xc3\xa9ture'
p190
S'temp\xc3\xa9rature'
p191
sS'sservices'
p192
S'services'
p193
sS'ralentssement'
p194
S'ralentissement'
p195
sS'aka'
p196
S'alias'
p197
sS'gerre'
p198
S'guerre'
p199
sS'maricaines'
p200
S'am\xc3\xa9ricaines'
p201
sS'apparentent'
p202
S'apparente'
p203
sS'Garcia-Alix'
p204
S'Garc\xc3\xada-Alix'
p205
sS'\xc3\xa9coule'
p206
S'\xc3\xa9coulent'
p207
sS'9e'
p208
S'9 e'
p209
sS'Qatar'
p210
S'Bahrein'
p211
sS'traffiquent'
p212
S'trafiquent'
p213
sS'Travrs'
p214
S'Travers'
p215
sS'avent'
p216
S'avant'
p217
sS'Gazan'
p218
S'Spiero'
p219
sS'Book'
p220
S'Books'
p221
sS'. Essai'
p222
S': essai'
p223
sS'am\xc3\xa9e'
p224
S'arm\xc3\xa9e'
p225
sS'posusi\xc3\xa8res'
p226
S'poussi\xc3\xa8res'
p227
sS'neutrino'
p228
S'neutrinos'
p229
sS'russse'
p230
S'russe'
p231
sS'Pompeii'
p232
S'Pompei'
p233
sS'travaers\xc3\xa9e'
p234
S'travers\xc3\xa9e'
p235
sS'artisants'
p236
S'artisans'
p237
sS'impr\xc3\xa9dictible'
p238
S'impr\xc3\xa9visible'
p239
sS'd\xc3\xa9limit\xc3\xa9'
p240
S'd\xc3\xa9limiter'
p241
sS'June'
p242
S'juin'
p243
sS'engendr\xc3\xa9e'
p244
S'engendr\xc3\xa9s'
p245
sS'tann\xc3\xa9s'
p246
S'\xc3\xa9coeur\xc3\xa9s'
p247
sS'prnonc\xc3\xa9e'
p248
S'prononc\xc3\xa9e'
p249
sS'm3'
p250
S'm\xc2\xb3'
p251
sS'm2'
p252
S'm\xc2\xb2'
p253
sS'Stan'
p254
S'Kyle'
p255
sS'acrtes'
p256
S'certes'
p257
sS'von'
p258
S'de'
p259
sS'v\xc3\xa9ll\xc3\xa9it\xc3\xa9s'
p260
S'vell\xc3\xa9it\xc3\xa9s'
p261
sS'A)-Brie'
p262
S'A-Brie'
p263
sS'Pandant'
p264
S'Durant'
p265
sS'atterrisage'
p266
S'atterrissage'
p267
sS'rec\xc3\xa9lait'
p268
S'recelait'
p269
sS'Broons'
p270
S'Broons-sur-Vilaine'
p271
sS'Abouzrik'
p272
S'Abourizk'
p273
sS'd\xc3\xa9aprt'
p274
S'd\xc3\xa9part'
p275
sS'90'
p276
S'85'
p277
sS'95'
p278
S'96'
p279
sS'94'
p280
S'95'
p281
sS'Carrol'
p282
S'Carroll'
p283
sS'1990'
p284
S'1989'
p285
sS'1992'
p286
S'1987'
p287
sS'1995'
p288
S'1994'
p289
sS'1994'
p290
S'1992'
p291
sS'1996'
p292
S'1986'
p293
sS'1999'
p294
S'2000'
p295
sS'1998'
p296
S'1999'
p297
sS'r\xc3\xa9interpretait'
p298
S'r\xc3\xa9interpr\xc3\xa9tait'
p299
sS'originellment'
p300
S'originellement'
p301
sS'\xc3\xa9voiquait'
p302
S'\xc3\xa9voquait'
p303
sS'LoudHohoO\xc2\xb0'
p304
S'Loud'
p305
sS'example'
p306
S'exemple'
p307
sS'president'
p308
S'pr\xc3\xa9sident'
p309
sS'Le'
p310
S'La'
p311
sS'Quand'
p312
S'Quant'
p313
sS'\xc3\xa9v\xc3\xaach\xc3\xa9'
p314
S'Ev\xc3\xaach\xc3\xa9'
p315
sS'compitition'
p316
S'comp\xc3\xa9tition'
p317
sS'implqu\xc3\xa9'
p318
S'impliqu\xc3\xa9'
p319
sS'Quant'
p320
S'Quand'
p321
sS'pauvre'
p322
S'pauvres'
p323
sS'\xc3\xa9di\xc3\xa9vales'
p324
S'm\xc3\xa9di\xc3\xa9vales'
p325
sS'oberve'
p326
S'observe'
p327
sS'm\xc3\xa9tis'
p328
S'm\xc3\xa9tiss\xc3\xa9'
p329
sS'oekoum\xc3\xa8ne'
p330
S'\xc3\xa9coum\xc3\xa8ne'
p331
sS'rebutent'
p332
S'rebute'
p333
sS'Sihole'
p334
S'Sihol'
p335
sS'rassemeble'
p336
S'rassemble'
p337
sS'Kob\xc3\xa9-\xc5\x8csaka-T\xc5\x8dky\xc5\x8d'
p338
S'K\xc5\x8dbe-\xc5\x8csaka-T\xc5\x8dky\xc5\x8d'
p339
sS'Jordan'
p340
S'Giordano'
p341
sS'\xc3\xa2age'
p342
S'\xc3\xa2ge'
p343
sS'1852-1926'
p344
S'1852 -1926'
p345
sS'd\xc3\xa9g\xc3\xa9n\xc3\xa8r\xc3\xa9'
p346
S'd\xc3\xa9g\xc3\xa9n\xc3\xa9r\xc3\xa9'
p347
sS'tremp\xc3\xa9e'
p348
S'tremp\xc3\xa9'
p349
sS'Yosif'
p350
S'Joseph'
p351
sS'A'
p352
S'\xc3\x80'
p353
sS'poker'
p354
S'jeu'
p355
sS'surcis'
p356
S'sursis'
p357
sS'1173'
p358
S'1773'
p359
sS'Spiritules'
p360
S'Spirituels'
p361
sS'd\xc3\xa8rri\xc3\xa8re'
p362
S'derri\xc3\xa8re'
p363
sS'exorter'
p364
S'exhorter'
p365
sS'lag'
p366
S'lac\xc3\x8a'
p367
sS'bas-relief'
p368
S'haut-relief'
p369
sS'b\xc3\xa2t'
p370
S'bat'
p371
sS'Shlomo'
p372
S'Chlomo'
p373
sS'lau'
p374
S'au'
p375
sS'M\xc3\xa9tal'
p376
S'metal'
p377
sS'scultures'
p378
S'sculptures'
p379
sS'Broons-sur-Vilaine'
p380
S'Broons'
p381
sS'occurence'
p382
S'occurrence'
p383
sS'd\xc3\xa9nivell\xc3\xa9'
p384
S'd\xc3\xa9nivel\xc3\xa9'
p385
sS'inombrables'
p386
S'innombrables'
p387
sS'Lou\xc3\xafse'
p388
S'Louise'
p389
sS'CFA'
p390
S'CFA2'
p391
sS': Ex'
p392
S'Exemple'
p393
sS'Auscwitz'
p394
S'Auschwitz'
p395
sS'Heredia'
p396
S'H\xc3\xa9r\xc3\xa9dia'
p397
sS'romaji'
p398
S'r\xc5\x8dmaji'
p399
sS'popiers'
p400
S'pompiers'
p401
sS'Assembl\xc3\xa9s'
p402
S'R\xc3\xa9alis\xc3\xa9s'
p403
sS'1994-1995'
p404
S'1996-1997'
p405
sS'NNPL'
p406
S'NPPL'
p407
sS'1998-1999'
p408
S'1997-1998'
p409
sS'\xef\xbf\xbd\xef\xbf\xbd\xef\xbf\xbdavec'
p410
S'avec'
p411
sS'Forhieri'
p412
S'Forghieri'
p413
sS'poss\xc3\xa9de'
p414
S'poss\xc3\xa8de'
p415
sS's\xc3\xa9visses'
p416
S's\xc3\xa9vices'
p417
sS'ultraracisme'
p418
S'ultra-racisme'
p419
sS'polerfesssfresitique'
p420
S'politique'
p421
sS'Silvestre'
p422
S'Sylvestre'
p423
sS'mourrir'
p424
S'mourir'
p425
sS'celes-ci'
p426
S'celles-ci'
p427
sS'Elaboration'
p428
S'\xc3\x89laboration'
p429
sS'matures'
p430
S'm\xc3\xbbres'
p431
sS"' mus\xc3\xa9e"
p432
S'Mus\xc3\xa9e'
p433
sS'Burrro'
p434
S'Burroo'
p435
sS'creu'
p436
S'creux'
p437
sS'subsistes'
p438
S'subsistent'
p439
sS'\xc3\xa9te'
p440
S'\xc3\xa9t\xc3\xa9'
p441
sS'407'
p442
S'908'
p443
sS'T\xc5\x8dky\xc5\x8d'
p444
S'Tokyo'
p445
sS'industriellle'
p446
S'industrielle'
p447
sS'd\xc3\xa9rni\xc3\xa8re'
p448
S'derni\xc3\xa8re'
p449
sS'mirroirs'
p450
S'miroirs'
p451
sS'D\xc3\xa9p\xc3\xa8che'
p452
S'D\xc3\xa9p\xc3\xaache'
p453
sS'Enorm\xc3\xa9ment'
p454
S'\xc3\x89norm\xc3\xa9ment'
p455
sS'recourt'
p456
S'recours'
p457
sS'cladsement'
p458
S'classement'
p459
sS'm\xc3\xa8nenent'
p460
S'm\xc3\xa8nerent'
p461
sS'SE-RT'
p462
S'SI-RT'
p463
sS'CHL'
p464
S'LCH'
p465
sS's\xc3\xa9lectionnalbles'
p466
S's\xc3\xa9lectionnables'
p467
sS'outrageant'
p468
S'exorbitant'
p469
sS'lat .'
p470
S'latin'
p471
sS'gr6ace'
p472
S'gr\xc3\xa2ce'
p473
sS'psychologie|psychologique'
p474
S'psychologie'
p475
sS'onzi\xc3\xa8me'
p476
S'11e'
p477
sS'nationnal-socialisme'
p478
S'national-socialisme'
p479
sS'm\xc3\xaam'
p480
S'm\xc3\xaame'
p481
sS'\xc5\x93vre'
p482
S'\xc5\x93uvre'
p483
sS'Daint'
p484
S'Saint'
p485
sS'Observatore'
p486
S'Osservatore'
p487
sS'T\xc3\xa9rezin'
p488
S'Terez\xc3\xadn'
p489
sS'succ\xc3\xa9ssivement'
p490
S'successivement'
p491
sS'G\xc5\x8dtz'
p492
S'G\xc3\xb6tz'
p493
sS'- la'
p494
S'* La'
p495
sS'avtil'
p496
S'avril'
p497
sS'cons\xc3\xa9d\xc3\xa9r\xc3\xa9'
p498
S'consid\xc3\xa9r\xc3\xa9'
p499
sS'souches'
p500
S'tiges'
p501
sS'represente'
p502
S'repr\xc3\xa9sente'
p503
sS'14mm'
p504
S'14 mm'
p505
sS'onomathop\xc3\xa9e'
p506
S'onomatop\xc3\xa9e'
p507
sS'Quartermain'
p508
S'Quatermain'
p509
sS'b\xc3\xa9nificie'
p510
S'b\xc3\xa9n\xc3\xa9ficie'
p511
sS'MacMurdo'
p512
S'Mac Murdo'
p513
sS'entraineur'
p514
S'entra\xc3\xaeneur'
p515
sS'Abandonn\xc3\xa9'
p516
S'Abandonner'
p517
sS'Cidades'
p518
S'Villes'
p519
sS'Tetouan'
p520
S'T\xc3\xa9touan'
p521
sS'Ile'
p522
S'\xc3\x8ele'
p523
sS'oseusse'
p524
S'osseuse'
p525
sS'batallons'
p526
S'bataillons'
p527
sS'395'
p528
S'373'
p529
sS'tropicale'
p530
S'centrale'
p531
sS'd\xc3\xa9fierait'
p532
S'd\xc3\xa9fiait'
p533
sS'faiblemment'
p534
S'faiblement'
p535
sS'prostitu\xc3\xa9s'
p536
S'prostitu\xc3\xa9es'
p537
sS'tounr\xc3\xa9s'
p538
S'tourn\xc3\xa9s'
p539
sS'Carentanet'
p540
S'Carentan et'
p541
sS'Willian'
p542
S'William'
p543
sS'Raffaellino'
p544
S'Rafaellino'
p545
sS'magasines'
p546
S'magazines'
p547
sS'entrreprise'
p548
S'entreprise'
p549
sS'CEA-CNRS-Univerist\xc3\xa9'
p550
S'CEA-CNRS-Universit\xc3\xa9'
p551
sS'Botroo'
p552
S'Botro'
p553
sS'prot\xc3\xa8g\xc3\xa9'
p554
S'prot\xc3\xa9g\xc3\xa9'
p555
sS'commaut\xc3\xa9e'
p556
S'communaut\xc3\xa9e'
p557
sS'tierce'
p558
S'ti\xc3\xa8rce'
p559
sS"B\xc3\xa2teaud '"
p560
S"B\xc3\xa2teau d'"
p561
sS'int\xc3\xaaret'
p562
S'int\xc3\xa9r\xc3\xaat'
p563
sS'TNSA'
p564
S'TNSNA'
p565
sS'Riddley'
p566
S'Ridley'
p567
sS'renommer'
p568
S'renomm\xc3\xa9'
p569
sS'241'
p570
S'247'
p571
sS'celon'
p572
S'selon'
p573
sS'effecut\xc3\xa9'
p574
S'effectu\xc3\xa9'
p575
sS'appellement'
p576
S'appeler'
p577
sS'c\xc3\xa9l\xc3\xa9brale'
p578
S'c\xc3\xa9r\xc3\xa9brale'
p579
sS'Disgrace'
p580
S'Disgr\xc3\xa2ce'
p581
sS'professionels'
p582
S'professionnels'
p583
sS'nom\xc3\xa9e'
p584
S'nomm\xc3\xa9e'
p585
sS'September'
p586
S'Septembre'
p587
sS'matyrise'
p588
S'martyrise'
p589
sS'commandit\xc3\xa9'
p590
S'commandit\xc3\xa9s'
p591
sS'000'
p592
S'800'
p593
sS'100000'
p594
S'100 000'
p595
sS'1965Les'
p596
S'1964Les'
p597
sS'rebroussse'
p598
S'rebrousse'
p599
sS'auxilliaire'
p600
S'auxiliaire'
p601
sS'Rouvres'
p602
S'Rouvres-la-Ch\xc3\xa9tive'
p603
sS'\xc3\xa9\xc3\xa9'
p604
S'\xc3\xa9t\xc3\xa9'
p605
sS'Vincennnes'
p606
S'Vincennes'
p607
sS'chihuhaha'
p608
S'chihuahua'
p609
sS'missing .'
p610
S'n\xc3\xa9cessaire'
p611
sS'Brie-Comte-Robert-FR010594'
p612
S'Villemeneux-FR091848'
p613
sS'\xc3\x82'
p614
g352
sS'malorit\xc3\xa9'
p615
S'majorit\xc3\xa9'
p616
sS'milite'
p617
S'milit\xc3\xa9'
p618
sS'receuille'
p619
S'recueille'
p620
sS'boeufs'
p621
S'b\xc5\x93ufs'
p622
sS'Sporck'
p623
S'\xc5\xa0pork'
p624
sS'francophone'
p625
S'wallonne'
p626
sS'Internationnal'
p627
S'International'
p628
sS'198'
p629
S'199'
p630
sS'\xc3\xa9'
p631
S'et'
p632
sS'basketball'
p633
S'basket-ball'
p634
sS'Twinrova'
p635
S'Koutake'
p636
sS'Hitle'
p637
S'Hitler'
p638
sS'tou'
p639
S'tout'
p640
sS'nait'
p641
S'na\xc3\xaet'
p642
sS'extr\xc3\xa8me'
p643
S'extr\xc3\xaame'
p644
sS'Cet'
p645
S'Cette'
p646
sS'Ces'
p647
S'Ses'
p648
sS'sucession'
p649
S'succession'
p650
sS'Haiti'
p651
S'Ha\xc3\xafti'
p652
sS'Cor\xc3\xa9graphiques'
p653
S'Chor\xc3\xa9graphiques'
p654
sS'remoques'
p655
S'remorques'
p656
sS'\xc3\xa9l\xc3\xa9v\xc3\xa9e'
p657
S'\xc3\xa9lev\xc3\xa9e'
p658
sS'Malgr\xc3\xa8s'
p659
S'Malgr\xc3\xa9'
p660
sS'1879'
p661
S'1878'
p662
sS'Metastase'
p663
S'M\xc3\xa9tastase'
p664
sS'quattre'
p665
S'quatre'
p666
sS'\xc3\x89 .'
p667
S'\xc3\x89mile'
p668
sS"Maliens '"
p669
S'maliens'
p670
sS'81cm'
p671
S'77cm'
p672
sS'acc\xc3\xa9l\xc3\xa9ration'
p673
S'acc\xc3\xa9l\xc3\xa9rations'
p674
sS'plagial'
p675
S'plagal'
p676
sS'appartions'
p677
S'apparitions'
p678
sS'Zeto'
p679
S'Z'
p680
sS'DEUX'
p681
S'cinq'
p682
sS'1976'
p683
S'1965'
p684
sS'tres'
p685
S'tr\xc3\xa8s'
p686
sS'fr\xc3\xa9cence'
p687
S'fr\xc3\xa9quence'
p688
sS'conduirent'
p689
S'conduisirent'
p690
sS'comection'
p691
S'collection'
p692
sS'recherhce'
p693
S'recherche'
p694
sS'Etatiques'
p695
S'\xc3\x89tatiques'
p696
sS'Etats-Unis'
p697
S'\xc3\x89tats-Unis'
p698
sS'Offensive'
p699
S'Bataille'
p700
sS'X).'
p701
S'X) :'
p702
sS'el\xc3\xa9gant'
p703
S'\xc3\xa9l\xc3\xa9gant'
p704
sS'Ch\xc3\xa9zy-en-Orsois'
p705
S'Ch\xc3\xa9zy-en-Orxois'
p706
sS'\xc3\x89rik'
p707
S'Erik'
p708
sS'bysantine'
p709
S'byzantine'
p710
sS'Conf\xc3\xa9d\xc3\xa9ratio'
p711
S'Conf\xc3\xa9d\xc3\xa9ration'
p712
sS'd\xc3\xa9veloppeur'
p713
S'd\xc3\xa9veloppeurs'
p714
sS'Erysichthon'
p715
S'\xc3\x89rysichthon'
p716
sS'longe'
p717
S'longent'
p718
sS'caract\xc3\xa9re'
p719
S'caract\xc3\xa8re'
p720
sS'traumatisant'
p721
S'traumatisante'
p722
sS'acd\xc3\xa9mique'
p723
S'acad\xc3\xa9mique'
p724
sS'1964'
p725
S'1965'
p726
sS'Kichijochi'
p727
S'Kichij\xc3\xb4ji'
p728
sS'r\xc3\xa9novattion'
p729
S'r\xc3\xa9novation'
p730
sS'1967'
p731
S'1968'
p732
sS'POR'
p733
S'ROM'
p734
sS'autrichien'
p735
S'Autricheautrichien'
p736
sS'habituellemnt'
p737
S'habituellement'
p738
sS'1989-1993'
p739
S'1989 -1993'
p740
sS'oueurs'
p741
S'joueurs'
p742
sS'Bosvoore'
p743
S'Watermael-Boitsfort'
p744
sS'128Mo'
p745
S'128 Mo'
p746
sS'entresaint-Andr\xc3\xa9'
p747
S'entre saint-Andr\xc3\xa9'
p748
sS'surboost\xc3\xa9'
p749
S'surboost\xc3\xa9es'
p750
sS'lorqu'
p751
S'lorsqu'
p752
sS'Despl\xc3\xa9chin'
p753
S'Desplechin'
p754
sS'paravant'
p755
S'd\xc3\xa9but'
p756
sS'Mabionogion'
p757
S'Mabinogion'
p758
sS'Javavers'
p759
S'Java vers'
p760
sS'3354'
p761
S'335'
p762
sS'confondre'
p763
S'm\xc3\xa9langer'
p764
sS'a\xc3\xa9raudynamique'
p765
S'a\xc3\xa9rodynamique'
p766
sS'Ryuku'
p767
S'Ryukyu'
p768
sS'latinkons'
p769
S'latinikons'
p770
sS'governeur'
p771
S'gouverneur'
p772
sS'EQU-d'
p773
S'ECU-d'
p774
sS'locuteur'
p775
S'locuteurs'
p776
sS'magasine'
p777
S'magazine'
p778
sS'Allan'
p779
S'Alan'
p780
sS'surEklektik'
p781
S'sur Eklektik'
p782
sS'm'
p783
S'm>1'
p784
sS'Gruber'
p785
S'Gr\xc3\xbcber'
p786
sS'Election'
p787
S'\xc3\x89lection'
p788
sS'maitrise'
p789
S'ma\xc3\xaetrise'
p790
sS'laGrande'
p791
S'la Grande'
p792
sS'left'
p793
S'center'
p794
sS'plaisanterieJoseph'
p795
S'plaisanterieNorbert'
p796
sS'Manchoue'
p797
S'Mandchou'
p798
sS'Seul'
p799
S'Seuls'
p800
sS'd"'
p801
S"d'"
p802
sS'intfggfgfdgitul\xc3\xa9'
p803
S'intitul\xc3\xa9'
p804
sS's\xc3\xa9cretaire'
p805
S'secr\xc3\xa9taire'
p806
sS'effe'
p807
S'effet'
p808
sS'septembe'
p809
S'septembre'
p810
sS'uen'
p811
S'une'
p812
sS'partialles'
p813
S'partielles'
p814
sS'finois'
p815
S'finnois'
p816
sS'apparait'
p817
S'appara\xc3\xaet'
p818
sS'Lubowaka'
p819
S'Lubow aka'
p820
sS'univer'
p821
S'univers'
p822
sS'pentec\xc3\xb4tisme'
p823
S'pentec\xc3\xb4tistes'
p824
sS'Evry'
p825
S'\xc3\x89vry'
p826
sS'Casamance'
p827
S'Basse-Casamance'
p828
sS'BrachiZord'
p829
S'BrachioZord'
p830
sS'Edimbourgh'
p831
S'\xc3\x89dimbourg'
p832
sS'12\xc3\xa8me'
p833
S'douzi\xc3\xa8me'
p834
sS'laRoyal'
p835
S'la Royal'
p836
sS'eprise'
p837
S'prise'
p838
sS'accuseur'
p839
S'accusateur'
p840
sS'vicoires'
p841
S'victoires'
p842
sS'empreutent'
p843
S'empruntent'
p844
sS'ach\xc3\xa8tela'
p845
S'ach\xc3\xa8te la'
p846
sS'Asash\xc5\x8dry\xc5\xab'
p847
S'Asashoryu'
p848
sS'nors'
p849
S'nord'
p850
sS'radio-t\xc3\xa9lescopes'
p851
S'radiot\xc3\xa9lescopes'
p852
sS'12'
p853
S'5'
p854
sS'accompte'
p855
S'acompte'
p856
sS'agggrava'
p857
S'aggrava'
p858
sS'cardinale'
p859
S'cardinal'
p860
sS'X'
p861
S'XIX'
p862
sS'beacoup'
p863
S'beaucoup'
p864
sS'Loud'
p865
S'LoudHohoO\xc2\xb0'
p866
sS'd\xc3\xa9vellop\xc3\xa9'
p867
S'd\xc3\xa9velopp\xc3\xa9'
p868
sS'R\xc3\xa9publique'
p869
S'\xc3\x8ele'
p870
sS'droit\xc3\xa0'
p871
S'droit \xc3\xa0'
p872
sS'empreinter'
p873
S'emprunter'
p874
sS'bresilien'
p875
S'br\xc3\xa9silien'
p876
sS'Cl\xc3\xa9menceau'
p877
S'Clemenceau'
p878
sS'rapporchement'
p879
S'rapprochement'
p880
sS'presques'
p881
S'presque'
p882
sS'Diepsur'
p883
S'Diep sur'
p884
sS'combattif'
p885
S'combatif'
p886
sS'Chlomo'
p887
S'Shlomo'
p888
sS'billante'
p889
S'brillante'
p890
sS'pr\xc3\xa9dictions'
p891
S'divinations'
p892
sS'Principallement'
p893
S'Principalement'
p894
sS'propagandistes'
p895
S'adversaires'
p896
sS'pr\xc3\xa9c\xc3\xa9des'
p897
S'pr\xc3\xa9c\xc3\xa9d\xc3\xa9es'
p898
sS'Fran\xc3\xa7is'
p899
S'Francis'
p900
sS'Classiquement'
p901
S'Autrefois'
p902
sS'fair'
p903
S'faire'
p904
sS'Eurom\xc3\xa9dit\xc3\xa9rran\xc3\xa9e'
p905
S'Eurom\xc3\xa9diterran\xc3\xa9e'
p906
sS'multijoueur'
p907
S'campagne'
p908
sS'GTOs'
p909
S'GTO'
p910
sS'p\xc3\xa9lerinages'
p911
S'p\xc3\xa8lerinages'
p912
sS'ordres'
p913
S'ordr es'
p914
sS'quarante'
p915
S'cinquante'
p916
sS'zonez'
p917
S'zone'
p918
sS'optimum'
p919
S'optimale'
p920
sS'contrebassistejama\xc3\xafcain'
p921
S'contrebassiste jama\xc3\xafcain'
p922
sS'man\xc3\xa9ges'
p923
S'man\xc3\xa8ges'
p924
sS'02'
p925
S'2'
p926
sS'03'
p927
S'4'
p928
sS'01'
p929
g926
sS'ergomotricit\xc3\xa9'
p930
S'ergomotricit'
p931
sS'04'
p932
g928
sS'05'
p933
g854
sS'tarvail'
p934
S'travail'
p935
sS'08'
p936
S'8'
p937
sS'r\xc3\xa9sponsable'
p938
S'responsable'
p939
sS'Epernay'
p940
S'\xc3\x89pernay'
p941
sS'Rohan'
p942
S'Rohan-Polduc'
p943
sS'notament'
p944
S'notamment'
p945
sS'emboite'
p946
S'embo\xc3\xaete'
p947
sS't .'
p948
S'telmatherina'
p949
sS', and'
p950
S'et'
p951
sS'Mikelatz'
p952
S'Mikelats'
p953
sS'Wismerill'
p954
S'Wismerhill'
p955
sS'r\xc3\xa9pr\xc3\xa8sente'
p956
S'repr\xc3\xa9sente'
p957
sS'Johakim'
p958
S'Joachim'
p959
sS'd\xc3\xa9sservie'
p960
S'desservie'
p961
sS'20074'
p962
S'2004'
p963
sS'Edgar'
p964
S'Edgard'
p965
sS'acueillir'
p966
S'accueillir'
p967
sS'adage'
p968
S'proverbe'
p969
sS'Massachusets'
p970
S'Massachussets'
p971
sS'noueau'
p972
S'nouveau'
p973
sS'menssonge'
p974
S'mensonge'
p975
sS'ile'
p976
S'ils'
p977
sS'coutera'
p978
S'co\xc3\xbbtera'
p979
sS'compl\xc3\xa9te'
p980
S'compl\xc3\xa8te'
p981
sS'parcequ'
p982
S'parce qu'
p983
sS'Premi\xc3\xa8e'
p984
S'Premi\xc3\xa8re'
p985
sS'beeps'
p986
S'bips'
p987
sS'cahotique'
p988
S'chaotique'
p989
sS'Karen'
p990
S'Kachin'
p991
sS'und'
p992
S'et'
p993
sS'succesion'
p994
S'succession'
p995
sS'ouivrir'
p996
S'ouvrir'
p997
sS'crain'
p998
S'craint'
p999
sS'hopital'
p1000
S'h\xc3\xb4pital'
p1001
sS'K\xc3\xb6lnn'
p1002
S'K\xc3\xb6ln'
p1003
sS'Aticle'
p1004
S'Article'
p1005
sS'Ier'
p1006
S'I er'
p1007
sS'Mosaique'
p1008
S'mosa\xc3\xafque'
p1009
sS't\xc3\xaache'
p1010
S't\xc3\xa2che'
p1011
sS'manieriste'
p1012
S'mani\xc3\xa9riste'
p1013
sS'S\xc3\xa2r'
p1014
S'Josephin'
p1015
sS'ETA'
p1016
S'ETARF'
p1017
sS'|croissant'
p1018
S'croissant'
p1019
sS'consid\xc3\xa9re'
p1020
S'consid\xc3\xa8re'
p1021
sS'galce'
p1022
S'glace'
p1023
sS'250'
p1024
S'370'
p1025
sS'th\xc3\xa9atre'
p1026
S'th\xc3\xa9\xc3\xa2tre'
p1027
sS'Laethem-Saint-Martens'
p1028
S'Laethem-Saint-Martin'
p1029
sS'Pau'
p1030
S'Peu'
p1031
sS'quatrieme'
p1032
S'quatri\xc3\xa8me'
p1033
sS'd\xc3\xa9mocratique'
p1034
S'd\xc3\xa9mocrate'
p1035
sS'annees'
p1036
S'ann\xc3\xa9es'
p1037
sS'assasin\xc3\xa9s'
p1038
S'assassin\xc3\xa9s'
p1039
sS'Groupo'
p1040
S'Groupe'
p1041
sS'inond\xc3\xa9e'
p1042
S'innond\xc3\xa9e'
p1043
sS'sud-est'
p1044
S'sud'
p1045
sS'beep'
p1046
S'bip'
p1047
sS'Nord-Est'
p1048
S'Sud-Est'
p1049
sS'16ans'
p1050
S'16 ans'
p1051
sS'contraction'
p1052
S'contradiction'
p1053
sS'continentale'
p1054
S'mondiale'
p1055
sS'enm\xc3\xa9nagement'
p1056
S'emm\xc3\xa9nagement'
p1057
sS'Protestante'
p1058
S'\xc3\xa9vang\xc3\xa9lique'
p1059
sS'Tokyo'
p1060
S'T\xc5\x8dky\xc5\x8d'
p1061
sS'Nationale'
p1062
S'd\xc3\xa9partementale'
p1063
sS'Acadie'
p1064
S'Abitibi-Ouest'
p1065
sS'Georgio'
p1066
S'Giorgio'
p1067
sS'Tr\xc3\xa8ve'
p1068
S'Tr\xc3\xaave'
p1069
sS'd\xc3\xa9mocrate-chr\xc3\xa9tienSalvatore'
p1070
S'd\xc3\xa9mocrate-chr\xc3\xa9tien Salvatore'
p1071
sS'Kleinblitersdorf'
p1072
S'Kleinblittersdorf'
p1073
sS'D\xc3\xb4le'
p1074
S'Dole'
p1075
sS'appartienent'
p1076
S'appartiennent'
p1077
sS'Marines'
p1078
S'Marine'
p1079
sS'Cri'
p1080
S'tableau'
p1081
sS'160'
p1082
S'130'
p1083
sS'Tokyu'
p1084
S'T\xc5\x8dky\xc5\xab'
p1085
sS'Deutsche'
p1086
S'Deutscher'
p1087
sS'titr\xc3\xa9'
p1088
S'intitul\xc3\xa9'
p1089
sS'nom\xc3\xa9'
p1090
S'nomm\xc3\xa9'
p1091
sS'Gouguenheim'
p1092
S'Gougenheim'
p1093
sS'Gu\xc3\xaapard'
p1094
S'Gu\xc3\xa9pard'
p1095
sS'Ca'
p1096
S'\xc3\x87a'
p1097
sS'christianisiation'
p1098
S'christianisation'
p1099
sS'Ce'
p1100
S'Son'
p1101
sS'Evian'
p1102
S'\xc3\x89vian'
p1103
sS'pleine-haute'
p1104
S'Saint-Julien'
p1105
sS'caract\xc3\xa9risitique'
p1106
S'caract\xc3\xa9ristique'
p1107
sS'131 :'
p1108
S'131||'
p1109
sS'Donitz'
p1110
S'D\xc3\xb6nitz'
p1111
sS'succes'
p1112
S'succ\xc3\xa8s'
p1113
sS'temre'
p1114
S'terme'
p1115
sS'controler'
p1116
S'contr\xc3\xb4ler'
p1117
sS'fan\xc3\xa7ais'
p1118
S'fran\xc3\xa7ais'
p1119
sS'entraine'
p1120
S'entra\xc3\xaene'
p1121
sS'1ere'
p1122
S'1 re'
p1123
sS'commissarit'
p1124
S'commissariat'
p1125
sS'HTMLs'
p1126
S'HTML'
p1127
sS'antisionisme'
p1128
S'antis\xc3\xa9mitisme'
p1129
sS'in'
p1130
S'dans'
p1131
sS'Villefranche-de-Rouergue'
p1132
S'Sauveterre-de-Rouergue'
p1133
sS'maya'
p1134
S'Mayas'
p1135
sS'nord-ouet'
p1136
S'nord-ouest'
p1137
sS'empeureur'
p1138
S'empereur'
p1139
sS'Certainnes'
p1140
S'Certaines'
p1141
sS'1810'
p1142
S'1910'
p1143
sS'descent'
p1144
S'descend'
p1145
sS'suffisemment'
p1146
S'suffisamment'
p1147
sS'Andre'
p1148
S'Andr\xc3\xa9'
p1149
sS'Sttutgart'
p1150
S'Stuttgart'
p1151
sS'passon'
p1152
S'passion'
p1153
sS'encoreune'
p1154
S'encore une'
p1155
sS'provinciale'
p1156
S'qu\xc3\xa9b\xc3\xa9coise'
p1157
sS'Kob\xc3\xa9-Osaka-Tokyo'
p1158
S'Kob\xc3\xa9-Osaka-T\xc5\x8dky\xc5\x8d'
p1159
sS'cel\xc3\xa0'
p1160
S'cela'
p1161
sS'ditmilord'
p1162
S'dit milord'
p1163
sS'Vieux'
p1164
S'Vieil'
p1165
sS'Royaumes-Unis'
p1166
S'Royaume-Uni'
p1167
sS'bosozuko'
p1168
S'bosozoku'
p1169
sS'conduteurs'
p1170
S'conducteurs'
p1171
sS'supl\xc3\xa9mentaires'
p1172
S'suppl\xc3\xa9mentaires'
p1173
sS'tranport\xc3\xa9'
p1174
S'transport\xc3\xa9'
p1175
sS'Fran\xc3\xa7ais'
p1176
S'anglais'
p1177
sS'XVIeme'
p1178
S'XVI\xc3\xa8me'
p1179
sS'orgnaise'
p1180
S'organise'
p1181
sS'managment'
p1182
S'management'
p1183
sS'E00'
p1184
S'E .'
p1185
sS'\xc3\xa9roite'
p1186
S'\xc3\xa9troite'
p1187
sS'(914m)'
p1188
S'( 914 m)'
p1189
sS'VW'
p1190
S'Volkswagen'
p1191
sS'ensenc\xc3\xa9'
p1192
S'encens\xc3\xa9'
p1193
sS'r\xc3\xa9element'
p1194
S'r\xc3\xa9ellement'
p1195
sS'Su\xc3\xa8doise'
p1196
S'su\xc3\xa9doise'
p1197
sS'netet'
p1198
S'nette'
p1199
sS'chateau'
p1200
S'ch\xc3\xa2teau'
p1201
sS'interpr\xc3\xaat\xc3\xa9e'
p1202
S'interpr\xc3\xa9t\xc3\xa9e'
p1203
sS'Ve'
p1204
S'V e'
p1205
sS'1978'
p1206
S'1979'
p1207
sS'icones'
p1208
S'embl\xc3\xa8mes'
p1209
sS'1975'
p1210
S'1974'
p1211
sS'1974'
p1212
S'1975'
p1213
sS'1973'
p1214
S'1988'
p1215
sS'1972'
p1216
S'1977'
p1217
sS'1970'
p1218
S'1972'
p1219
sS'Saunier-S\xc3\xa9\xc3\xaft\xc3\xa9'
p1220
S'Saunier-S\xc3\xa9it\xc3\xa9'
p1221
sS'Tribune'
p1222
S'Tribun'
p1223
sS'New-YorkAncien'
p1224
S'New-York'
p1225
sS'1690m'
p1226
S'1694m'
p1227
sS'charlis'
p1228
S'charlie'
p1229
sS'indigo'
p1230
S'Indigo )'
p1231
sS'Cinema4D'
p1232
S'Cinema 4D'
p1233
sS'V\xc3\xa9n\xc3\xa9zuela'
p1234
S'Venezuela'
p1235
sS'Marcelitte'
p1236
S'Marcellite'
p1237
sS'observatoies'
p1238
S'observatoires'
p1239
sS'" axe'
p1240
S'Axe'
p1241
sS'Ch\xc3\xa2telet'
p1242
S'Chatelet'
p1243
sS'wallonne'
p1244
S'francophone'
p1245
sS'ecrivant'
p1246
S'\xc3\x89crivant'
p1247
sS'" armes "'
p1248
S'sanctions'
p1249
sS'scooterdes'
p1250
S'scooter des'
p1251
sS'suffisament'
p1252
S'suffisamment'
p1253
sS'avetures'
p1254
S'aventures'
p1255
sS'h\xc3\xa9moragie'
p1256
S'h\xc3\xa9morragie'
p1257
sS'Compagnierassemble'
p1258
S'Compagnie rassemble'
p1259
sS'comcombre'
p1260
S'concombre'
p1261
sS'Angoul\xc3\xa8me'
p1262
S'Angoul\xc3\xaame'
p1263
sS'Mazatrin'
p1264
S'Mazarin'
p1265
sS'Bienheureux'
p1266
S'Saint'
p1267
sS'metropole'
p1268
S'm\xc3\xa9tropole'
p1269
sS'Z\xc3\xa9lande'
p1270
S'Zealand'
p1271
sS'acc\xc3\xa9lerer'
p1272
S'acc\xc3\xa9l\xc3\xa9rer'
p1273
sS'(2mm'
p1274
S'( 2 mm'
p1275
sS'Maion'
p1276
S'Maison'
p1277
sS'cetaines'
p1278
S'certaines'
p1279
sS'4\xc3\xa8me'
p1280
S'4e'
p1281
sS'#0055aa'
p1282
S'#0077ed'
p1283
sS'ecternes'
p1284
S'externes'
p1285
sS'guignoles'
p1286
S'guignols'
p1287
sS'antis\xc3\xa9mitime'
p1288
S'antis\xc3\xa9mitisme'
p1289
sS'Wojcieh'
p1290
S'Wojciech'
p1291
sS'co-d\xc3\xa9cidant'
p1292
S'co-d\xc3\xa9cideur'
p1293
sS'retaur\xc3\xa9e'
p1294
S'restaur\xc3\xa9e'
p1295
sS'abbatre'
p1296
S'abattre'
p1297
sS'illyrenne'
p1298
S'illyrienne'
p1299
sS'naviguais'
p1300
S'naviguaient'
p1301
sS'. Elle'
p1302
S', elle'
p1303
sS'mourru'
p1304
S'mourut'
p1305
sS'AD-Tranz'
p1306
S'Adtranz'
p1307
sS'plannifia'
p1308
S'planifia'
p1309
sS'desire'
p1310
S'd\xc3\xa9sire'
p1311
sS'saumatres'
p1312
S'saum\xc3\xa2tres'
p1313
sS'1553'
p1314
S'1556'
p1315
sS'sc\xc3\xa8nographe'
p1316
S'sc\xc3\xa9nographe'
p1317
sS'passe-bandes'
p1318
S'passe-bande'
p1319
sS'deSantiago'
p1320
S'de Santiago'
p1321
sS'1556'
p1322
S'1553'
p1323
sS'54'
p1324
S'52'
p1325
sS'convervatoire'
p1326
S'conservatoire'
p1327
sS'buldozaire'
p1328
S'buldozer'
p1329
sS'50'
p1330
S'cinquante'
p1331
sS'boulverser'
p1332
S'bouleverser'
p1333
sS'd\xc3\xa9c\xc3\xa9vant'
p1334
S'd\xc3\xa9cevant'
p1335
sS'popularit\xc3\xa9'
p1336
S'popu'
p1337
sS'Japonaiseavec'
p1338
S'Japonaise avec'
p1339
sS'zombies'
p1340
S'zombis'
p1341
sS'D\xc3\xa9ise'
p1342
S'D\xc3\xa9isi'
p1343
sS'reconte'
p1344
S'recontre'
p1345
sS'Prince'
p1346
S'Princesse'
p1347
sS'dentition'
p1348
S'denture'
p1349
sS'madarin'
p1350
S'mandarin'
p1351
sS'right'
p1352
S'center'
p1353
sS'Cambrai'
p1354
S'Valenciennes'
p1355
sS'olf'
p1356
S'Adolf'
p1357
sS'\xc3\xa9ponyme'
p1358
S'homonyme'
p1359
sS'certaienement'
p1360
S'certainement'
p1361
sS'. Il'
p1362
S'et'
p1363
sS'Barandiarand'
p1364
S'Barandiaran'
p1365
sS'enchainant'
p1366
S'encha\xc3\xaenant'
p1367
sS'terle'
p1368
S'terme'
p1369
sS'illusion .'
p1370
S'illusionLa'
p1371
sS'52'
p1372
S'cinquante-deux'
p1373
sS'patronnage'
p1374
S'patronage'
p1375
sS'aride'
p1376
S'lunaire'
p1377
sS'lesv\xc3\xa9nitiens'
p1378
S'les v\xc3\xa9nitiens'
p1379
sS'for'
p1380
S'pour'
p1381
sS'Anti-\xc5\x92dipe-Capitalisme'
p1382
S'Anti-Oedipe-Capitalisme'
p1383
sS'Leo'
p1384
S'L\xc3\xa9o'
p1385
sS'Avanti !'
p1386
S'Architectures'
p1387
sS'35'
p1388
S'36'
p1389
sS'Les'
p1390
S'50pxLes'
p1391
sS'Didimo'
p1392
S'Didymotique'
p1393
sS'M\xc3\xa8lant'
p1394
S'Combinant'
p1395
sS'd\xc3\xa9spoir'
p1396
S'd\xc3\xa9sespoir'
p1397
sS'viticol'
p1398
S'viticole'
p1399
sS'prodruit'
p1400
S'produit'
p1401
sS'cach\xc3\xa8te'
p1402
S'cachette'
p1403
sS'rock /'
p1404
S'pop'
p1405
sS'Utrech'
p1406
S'Utrecht'
p1407
sS'Marle'
p1408
S'Marle-sur-Serre'
p1409
sS'ourang-outan'
p1410
S'orang-outan'
p1411
sS'\xc3\xa9quio\xc3\xa9e'
p1412
S'\xc3\xa9quip\xc3\xa9e'
p1413
sS'Humain-Machine-IHM'
p1414
S'Humain machine-IHM'
p1415
sS'\xc2\xbb( Litr\xc3\xa9'
p1416
S'\xc2\xbb ( Littr\xc3\xa9'
p1417
sS'r\xc3\xa9alistaeur'
p1418
S'r\xc3\xa9alisateur'
p1419
sS'socit\xc3\xa9'
p1420
S'Soci\xc3\xa9t\xc3\xa9'
p1421
sS'graphiques'
p1422
S'graphismes'
p1423
sS'super'
p1424
S'tr\xc3\xa8s'
p1425
sS'Honmon-ji'
p1426
S'Honmonji'
p1427
sS'votentque'
p1428
S'votent que'
p1429
sS'peut-il'
p1430
S'peut'
p1431
sS'M\xc3\xa9dit\xc3\xa9rrann\xc3\xa9ee'
p1432
S'M\xc3\xa9dit\xc3\xa9rran\xc3\xa9e'
p1433
sS'dangeurosit\xc3\xa9'
p1434
S'dangerosit\xc3\xa9'
p1435
sS'Rochevillers'
p1436
S'Rochevilliers'
p1437
sS'europ\xc3\xa9enes'
p1438
S'europ\xc3\xa9ens'
p1439
sS'e^tre'
p1440
S'\xc3\xaatre'
p1441
sS'( actrice )'
p1442
S'Jerald'
p1443
sS'echiquier'
p1444
S'\xc3\xa9chiquier'
p1445
sS'respon-sabilit\xc3\xa9'
p1446
S'responsabilit\xc3\xa9'
p1447
sS'dollard'
p1448
S'dollar'
p1449
sS'Lodovico'
p1450
S'Lodocico'
p1451
sS'\xc3\xa0Prayssac'
p1452
S'\xc3\xa0 Prayssac'
p1453
sS'Coupe'
p1454
S'Coupes'
p1455
sS'Kissho'
p1456
S'Kissh\xc5\x8d'
p1457
sS'dollards'
p1458
S'dollars'
p1459
sS'\xc3\xa9b\xc3\xaat\xc3\xa9'
p1460
S'\xc3\xa9b\xc3\xaat\xc3\xa9e'
p1461
sS'Brogoni'
p1462
S'Brogni'
p1463
sS'incorporer'
p1464
S'incorpor\xc3\xa9es'
p1465
sS'II ,'
p1466
S'I I,'
p1467
sS'Lecocq'
p1468
S'Lecoq'
p1469
sS'sub-tropicales'
p1470
S'subtropicales'
p1471
sS'modile'
p1472
S'mobile'
p1473
sS'Viry-chatillon'
p1474
S'Viry-Ch\xc3\xa2tillon'
p1475
sS'Angletere'
p1476
S'Angleterre'
p1477
sS'H\xc3\xa9roine'
p1478
S'h\xc3\xa9ro\xc3\xafne'
p1479
sS'encuite'
p1480
S'ensuite'
p1481
sS'connaitre'
p1482
S'conna\xc3\xaetre'
p1483
sS'Fassi'
p1484
S'Fassil'
p1485
sS'Haute-Autriche\xc3\xa0'
p1486
S'Haute-Autriche \xc3\xa0'
p1487
sS'qualiti\xc3\xa9'
p1488
S'qualifi\xc3\xa9'
p1489
sS'asseyerez'
p1490
S'assoirez'
p1491
sS'January'
p1492
S'Janvier'
p1493
sS'pop-tart'
p1494
S'pop-tarts'
p1495
sS'Makay'
p1496
S'Mackay'
p1497
sS'Paul-Louis'
p1498
S'Paul-Auguste'
p1499
sS'sc\xc3\xa8nes'
p1500
S'en sc\xc3\xa8ne'
p1501
sS'mongoles'
p1502
S'Mongols'
p1503
sS'Maleureusement'
p1504
S'Malheureusement'
p1505
sS'caloporrteur'
p1506
S'caloporteur'
p1507
sS'\xc3\x89tats-Unis'
p1508
S'\xc3\x89tats-lolUnis'
p1509
sS'travwrs'
p1510
S'travers'
p1511
sS'more'
p1512
S'mort'
p1513
sS'election'
p1514
S'\xc3\xa9lection'
p1515
sS'150'
p1516
S'700'
p1517
sS'liberal'
p1518
S'lib\xc3\xa9ral'
p1519
sS'dominante'
p1520
S'd\xc3\xa9terminante'
p1521
sS'Beaudet'
p1522
S'Baudais'
p1523
sS'princpaux'
p1524
S'principaux'
p1525
sS'minimoyse'
p1526
S'minimoye'
p1527
sS'r\xc3\xa9ligion'
p1528
S'religion'
p1529
sS'signification'
p1530
S'significations'
p1531
sS'incursion'
p1532
S'incursions'
p1533
sS'Marseilleen'
p1534
S'Marseille en'
p1535
sS'Souvent'
p1536
S'Rarement'
p1537
sS'regime'
p1538
S'r\xc3\xa9gime'
p1539
sS'Cendateach'
p1540
S'C\xc3\xa9tchathach'
p1541
sS'supendus'
p1542
S'suspendus'
p1543
sS'Trouville-Deauville'
p1544
S'Lisieux'
p1545
sS'tards'
p1546
S'tard'
p1547
sS'perpent'
p1548
S'serpent'
p1549
sS'Andrea'
p1550
S'Andriano'
p1551
sS'Massachussetts'
p1552
S'Massachusetts'
p1553
sS', po'
p1554
S'ou'
p1555
sS'abbat'
p1556
S'abat'
p1557
sS'E'
p1558
S'E00'
p1559
sS'models'
p1560
S'mod\xc3\xa8les'
p1561
sS'disctrict'
p1562
S'district'
p1563
sS'1945dans'
p1564
S'1945 dans'
p1565
sS'Aix'
p1566
S'Aix-en-Provence'
p1567
sS'vice-pr\xc3\xa9siente'
p1568
S'vice-pr\xc3\xa9sidente'
p1569
sS'15e'
p1570
S'15 e'
p1571
sS'Herkulesaall'
p1572
S'Herkulesaal'
p1573
sS'serta'
p1574
S'sert'
p1575
sS'dangeureuse'
p1576
S'dangereuse'
p1577
sS'abbr\xc3\xa9vi\xc3\xa9'
p1578
S'abr\xc3\xa9g\xc3\xa9'
p1579
sS'Windowd'
p1580
S'Windows'
p1581
sS'Mitterrant'
p1582
S'Mitterrand'
p1583
sS'Emile'
p1584
S'\xc3\x89mile'
p1585
sS'Assistant-Capitaine )'
p1586
S'A)'
p1587
sS'stationn\xc3\xa9e'
p1588
S'stationn\xc3\xa9'
p1589
sS'd\xc3\xa9ces'
p1590
S'd\xc3\xa9c\xc3\xa8s'
p1591
sS'1779-1851'
p1592
S'1779 -1851'
p1593
sS'Second'
p1594
S'Seconde'
p1595
sS'Chateaubriant'
p1596
S'Chateaubriand'
p1597
sS'oeufs'
p1598
S'\xc5\x93ufs'
p1599
sS'periodes'
p1600
S'p\xc3\xa9riodes'
p1601
sS'dousaine'
p1602
S'douzaine'
p1603
sS'ced\xc3\xa9s'
p1604
S'c\xc3\xa9d\xc3\xa9s'
p1605
sS'd\xc3\xa9sservait'
p1606
S'desservait'
p1607
sS'dance'
p1608
S'danse'
p1609
sS'r\xc3\xa9p\xc3\xa9r\xc3\xa9s'
p1610
S'rep\xc3\xa9r\xc3\xa9s'
p1611
sS'consul'
p1612
S'proconsul'
p1613
sS'Samoens'
p1614
S'Samo\xc3\xabns'
p1615
sS'PbSoufre'
p1616
S'PbS'
p1617
sS'r\xc3\xa9sitance'
p1618
S'r\xc3\xa9sistance'
p1619
sS'co-\xc3\xa9crit'
p1620
S', \xc3\xa9crit'
p1621
sS'vexillation'
p1622
S'vexillatio'
p1623
sS'Lonjumeau'
p1624
S'Longjumeau'
p1625
sS'Andriano'
p1626
S'Adriano'
p1627
sS'chagri'
p1628
S'chagrin'
p1629
sS'romaines'
p1630
S'romaine'
p1631
sS'Porte-Drapeau'
p1632
S'porte-drapeaux'
p1633
sS'Fond\xc3\xa9'
p1634
S'Fond\xc3\xa9es'
p1635
sS'Goncharov'
p1636
S'Gontcharov'
p1637
sS'jugmeent'
p1638
S'jugement'
p1639
sS'Consul ('
p1640
S'consul ;'
p1641
sS'cr\xc3\xa9ee'
p1642
S'cr\xc3\xa9\xc3\xa9e'
p1643
sS'olimpique'
p1644
S'olympique'
p1645
sS'st-1 ,'
p1646
S's-t,'
p1647
sS'Khyadali'
p1648
S'Mhyadali'
p1649
sS'divorcea'
p1650
S'divor\xc3\xa7a'
p1651
sS'd\xc3\xa9teste'
p1652
S'ex\xc3\xa8cre'
p1653
sS'constrcution'
p1654
S'construction'
p1655
sS'notemment'
p1656
S'notamment'
p1657
sS'trouble'
p1658
S'troubloule'
p1659
sS'patielle'
p1660
S'partielle'
p1661
sS'Dimitri'
p1662
S'Hitler'
p1663
sS'Seine-sur-Mer'
p1664
S'Seyne-sur-Mer'
p1665
sS'collab .'
p1666
S'collaboration'
p1667
sS'seuelemnt'
p1668
S'seulement'
p1669
sS'Mouseton'
p1670
S'Mousetown'
p1671
sS'p'
p1672
S'pp .'
p1673
sS'2-915461-39-2'
p1674
S'2915461392'
p1675
sS'Kamata'
p1676
S'Kamata\xe8\x92\xb2\xe7\x94\xb0'
p1677
sS', bureau'
p1678
S'; bureaux'
p1679
sS'appell\xc3\xa9'
p1680
S'appel\xc3\xa9'
p1681
sS'P\xc3\xa9rier'
p1682
S'Perier'
p1683
sS'Ethiopie'
p1684
S'\xc3\x89thiopie'
p1685
sS'Altantique'
p1686
S'Atlantique'
p1687
sS'paricul\xc3\xa8res'
p1688
S'particuli\xc3\xa8res'
p1689
sS'309'
p1690
S'323'
p1691
sS'permiers'
p1692
S'premiers'
p1693
sS'd'
p1694
S'de'
p1695
sS'pourla'
p1696
S'pour la'
p1697
sS'sc\xc3\xa9narions'
p1698
S'sc\xc3\xa9narios'
p1699
sS'Aosta'
p1700
S'Aoste'
p1701
sS'inatendu'
p1702
S'inattendu'
p1703
sS'Red'
p1704
S'Reds'
p1705
sS'Om\xc3\xa9ga'
p1706
S'Omega'
p1707
sS", l'"
p1708
S". L'"
p1709
sS'duSoudet'
p1710
S'du Soudet'
p1711
sS'aticle'
p1712
S'article'
p1713
sS'plutot'
p1714
S'plut\xc3\xb4t'
p1715
sS'brulaient'
p1716
S'br\xc3\xbblaient'
p1717
sS'tarmac'
p1718
S'macadam'
p1719
sS', elle'
p1720
S'qui'
p1721
sS'N\xc3\xa9n\xc3\xa8teses'
p1722
S'N\xc3\xa9n\xc3\xa8tses'
p1723
sS'Hagoort'
p1724
S'Haagoort'
p1725
sS'contruit'
p1726
S'construit'
p1727
sS'Europe1'
p1728
S'Europe 1'
p1729
sS'123967'
p1730
S'123 967'
p1731
sS'Kaizer'
p1732
S'Ka\xc3\xafzer'
p1733
sS'Age'
p1734
S'\xc3\x82ge'
p1735
sS'Mn'
p1736
S'min'
p1737
sS'lOeuvre'
p1738
S'l\xc5\x92uvre'
p1739
sS'interpr\xc3\xa8rtent'
p1740
S'interpr\xc3\xa8tent'
p1741
sS'\xc2\xbb et'
p1742
S'\xc2\xbb, il'
p1743
sS'boulvers\xc3\xa9'
p1744
S'boulevers\xc3\xa9'
p1745
sS'relan\xc3\xa7a'
p1746
S'remit'
p1747
sS'contemporan\xc3\xa9\xc3\xaft\xc3\xa9'
p1748
S'contemporan\xc3\xa9it\xc3\xa9'
p1749
sS'18\xc3\xa8me'
p1750
S'XVIIIe'
p1751
sS'chomage'
p1752
S'ch\xc3\xb4mage'
p1753
sS'faier'
p1754
S'faire'
p1755
sS'307'
p1756
S'407'
p1757
sS'incontestables'
p1758
S'contestables'
p1759
sS'Casamian'
p1760
S'Cazamian'
p1761
sS'101e'
p1762
S'101 e'
p1763
sS'Artique'
p1764
S'Arctique'
p1765
sS'Profondement'
p1766
S'Profond\xc3\xa9ment'
p1767
sS'queces'
p1768
S'que ces'
p1769
sS'\xc3\xael\xc3\xb4t'
p1770
S'\xc3\xaelot'
p1771
sS'hillarentes'
p1772
S'hilarantes'
p1773
sS'd\xc3\xa9j'
p1774
S'd\xc3\xa9j\xc3\xa0'
p1775
sS't\xc3\xaatr'
p1776
S't\xc3\xaate'
p1777
sS'Br\xc3\xbcnning'
p1778
S'Br\xc3\xbcning'
p1779
sS'bourde'
p1780
S'bourse'
p1781
sS'pr\xc3\xa9decesseurs'
p1782
S'pr\xc3\xa9d\xc3\xa9cesseurs'
p1783
sS'right|thumb|Image'
p1784
S'200px|thumb|left|Image'
p1785
sS'Lansing'
p1786
S'elle'
p1787
sS'Assitante'
p1788
S'Assistante'
p1789
sS'comprennant'
p1790
S'comprenant'
p1791
sS'quatri\xc3\xa8me\xc3\xa8re'
p1792
S'quatri\xc3\xa8me \xc3\xa8re'
p1793
sS'BCB-troisi\xc3\xa8me'
p1794
S'troisi\xc3\xa8me'
p1795
sS'recencements'
p1796
S'recensements'
p1797
sS'Magisters'
p1798
S'Magist\xc3\xa8res'
p1799
sS'Apres'
p1800
S'Apr\xc3\xa8s'
p1801
sS'Davoust'
p1802
S'Davout'
p1803
sS'hypoth\xc3\xa8quesdans'
p1804
S'hypoth\xc3\xa8ques dans'
p1805
sS'Milao-Torino'
p1806
S'Milan-Turin'
p1807
sS'filma'
p1808
S'film'
p1809
sS'nourissent'
p1810
S'nourrissent'
p1811
sS'apprent'
p1812
S'apparent'
p1813
sS'efficasse'
p1814
S'efficace'
p1815
sS'Refus\xc3\xa9'
p1816
S'exclus'
p1817
sS'19\xc3\xa8me'
p1818
S'XIXe'
p1819
sS'Secon'
p1820
S'Second'
p1821
sS'ressentimment'
p1822
S'ressentiment'
p1823
sS'lac\xc3\x8a'
p1824
S'lac'
p1825
sS'Reichmarks'
p1826
S'Reichsmarks'
p1827
sS'pres'
p1828
S'pr\xc3\xaat'
p1829
sS'deFaf'
p1830
S'de Faf'
p1831
sS'October'
p1832
S'Octobre'
p1833
sS'distinctes'
p1834
S'distincte'
p1835
sS'faucon'
p1836
S'\xc3\xa9pervier'
p1837
sS'Sanchez'
p1838
S'S\xc3\xa1nchez'
p1839
sS'tuelle'
p1840
S'tutelle'
p1841
sS'internationnaux'
p1842
S'internationaux'
p1843
sS'gouvernenemt'
p1844
S'gouvernement'
p1845
sS'AdolfH'
p1846
S'Adolf'
p1847
sS'deamnde'
p1848
S'demande'
p1849
sS'Monceau-les-Mines'
p1850
S'Montceau-les-Mines'
p1851
sS'arrete'
p1852
S'arr\xc3\xaate'
p1853
sS'Chamiponnat'
p1854
S'Championnat'
p1855
sS'fantassin'
p1856
S'fantassins'
p1857
sS'Nubien'
p1858
S'nubiens'
p1859
sS'edible'
p1860
S'comestibles'
p1861
sS'ambig\xc3\xbc'
p1862
S'ambigu'
p1863
sS'reflus'
p1864
S'reflux'
p1865
sS'prot\xc3\xa8ger'
p1866
S'prot\xc3\xa9ger'
p1867
sS'fomatnum'
p1868
S'formatnum'
p1869
sS'concurence'
p1870
S'concurrence'
p1871
sS'Entrepreneur'
p1872
S'Entreprise'
p1873
sS'sout'
p1874
S'sont'
p1875
sS'encore14'
p1876
S'encore 14'
p1877
sS'M .'
p1878
S'M\xc3\xa9lanie'
p1879
sS'vallu'
p1880
S'valu'
p1881
sS'evolu\xc3\xa9'
p1882
S'\xc3\xa9volu\xc3\xa9'
p1883
sS'th\xc3\xa9atrale'
p1884
S'th\xc3\xa9\xc3\xa2trale'
p1885
sS'Out'
p1886
S'Off'
p1887
sS'pionner'
p1888
S'pionnier'
p1889
sS'saite'
p1890
S'sainte'
p1891
sS'villebrequin'
p1892
S'vilebrequin'
p1893
sS'geeks'
p1894
S'no-lifes'
p1895
sS'(1er'
p1896
S'(1\xc3\xa8re'
p1897
sS'diff\xc3\xa9rencielle'
p1898
S'diff\xc3\xa9rentielle'
p1899
sS'legua'
p1900
S'l\xc3\xa9gua'
p1901
sS'impresssionnent'
p1902
S'impressionnent'
p1903
sS'Devenant'
p1904
S'Devenu'
p1905
sS'abors'
p1906
S'abord ,'
p1907
sS'77cm'
p1908
S'81cm'
p1909
sS'interpret\xc3\xa9e'
p1910
S'interpr\xc3\xa9t\xc3\xa9e'
p1911
sS'XX\xc3\xa8me'
p1912
S'XXe'
p1913
sS'Sin\xc3\xa9-Saloum'
p1914
S'Sine-Saloum'
p1915
sS'\xc3\xa9minement'
p1916
S'\xc3\xa9minemment'
p1917
sS'ethmonyme'
p1918
S'ethnonyme'
p1919
sS'd\xc3\xa9cret'
p1920
S'd\xc3\xa9cretD\xc3\xa9cret'
p1921
sS'Nenets'
p1922
S'N\xc3\xa9n\xc3\xa8tses'
p1923
sS'occupper'
p1924
S'occuper'
p1925
sS'ustensibles'
p1926
S'ustensiles'
p1927
sS'porte-drapeaux'
p1928
S'porte-drapeau'
p1929
sS'etudie'
p1930
S'\xc3\xa9tudie'
p1931
sS'milim\xc3\xa8tres'
p1932
S'millim\xc3\xa8tres'
p1933
sS'differents'
p1934
S'diff\xc3\xa9rents'
p1935
sS'springsting'
p1936
S'springsteen'
p1937
sS'st\xc3\xa9ro\xc3\xafdes'
p1938
S'aminost\xc3\xa9ro\xc3\xafdes'
p1939
sS'1199'
p1940
S'1999'
p1941
sS'mas'
p1942
S'mars'
p1943
sS'100\xc2\xb0C'
p1944
S'100 \xc2\xb0C'
p1945
sS'ca\xc3\xaecedrats'
p1946
S'ca\xc3\xafcedrats'
p1947
sS'ABD-el-TIF'
p1948
S'Abd-el-Tif ,'
p1949
sS'Programmation .'
p1950
S'\xc2\xab programmation \xc2\xbb.'
p1951
sS'recenseent'
p1952
S'recrutement'
p1953
sS'enbrasent'
p1954
S'embrasent'
p1955
sS'" batards'
p1956
S'basters'
p1957
sS'Thierceleux'
p1958
S'Thiercelieux'
p1959
sS'enracin\xc3\xa9'
p1960
S'enracin\xc3\xa9e'
p1961
sS'Valery'
p1962
S'Val\xc3\xa9ry'
p1963
sS'Flotte'
p1964
S'Flote'
p1965
sS'Fullinsdorf'
p1966
S'F\xc3\xbcllinsdorf'
p1967
sS'Rubicond'
p1968
S'Rubicon'
p1969
sS'Beuax'
p1970
S'Beaux'
p1971
sS'nombreus'
p1972
S'nombreux'
p1973
sS's\xc3\xa9matic'
p1974
S's\xc3\xa9mantic'
p1975
sS'Onizuka'
p1976
S'il'
p1977
sS'sept'
p1978
S'cinq'
p1979
sS'trucs'
p1980
S'accessoires'
p1981
sS'ralier'
p1982
S'rallier'
p1983
sS'pillules'
p1984
S'pilules'
p1985
sS'Montfrot'
p1986
S'Montfort'
p1987
sS'francais'
p1988
S'fran\xc3\xa7ais'
p1989
sS'embarasse'
p1990
S'embarrasse'
p1991
sS'. Par'
p1992
S'par'
p1993
sS'masterclasses'
p1994
S'master-classes'
p1995
sS'soci\xc3\xa9t " (('
p1996
S'soci\xc3\xa9t\xc3\xa9 ('
p1997
sS'essort'
p1998
S'essor'
p1999
sS'consacter'
p2000
S'consacr\xc3\xa9'
p2001
sS't\xc3\xa9tard'
p2002
S'T\xc3\xaatard'
p2003
sS'episodes'
p2004
S'\xc3\xa9pisodes'
p2005
sS'antionalit\xc3\xa9'
p2006
S'nationalit\xc3\xa9'
p2007
sS'Cavazonni'
p2008
S'Cavazzoni'
p2009
sS'cellue'
p2010
S'cellule'
p2011
sS'tord'
p2012
S'tort'
p2013
sS'1955-56'
p2014
S'1955-1956'
p2015
sS'commencant'
p2016
S'commen\xc3\xa7ant'
p2017
sS'soont'
p2018
S'sont'
p2019
sS'Mgr'
p2020
S'M gr'
p2021
sS'avit'
p2022
S'avait'
p2023
sS'LPour'
p2024
S'Pour'
p2025
sS'trannquillement'
p2026
S'tranquillement'
p2027
sS'rassemblemnts'
p2028
S'rassemblements'
p2029
sS'swastika'
p2030
S'svastika'
p2031
sS'dangerosit\xc3\xa9'
p2032
S'danger'
p2033
sS'Oklalhoma'
p2034
S'Oklahoma'
p2035
sS'R\xc3\xa9gi\xc3\xb3n'
p2036
S'R\xc3\xa9gion'
p2037
sS'Socialist'
p2038
S'Socialiste'
p2039
sS'bri\xc3\xa9vement'
p2040
S'bri\xc3\xa8vement'
p2041
sS'Zourabivili'
p2042
S'Zourabichvili'
p2043
sS'1954'
p2044
S'1953'
p2045
sS'1957'
p2046
S'1958'
p2047
sS'1951'
p2048
S'1953'
p2049
sS'Courtemont'
p2050
S'Court\xc3\xa9mont'
p2051
sS'1952'
p2052
S'1951'
p2053
sS'transporteur'
p2054
S'porte-charge'
p2055
sS'1959'
p2056
S'1990 ,'
p2057
sS'Robertsone'
p2058
S'Robertson'
p2059
sS'navire'
p2060
S'navires'
p2061
sS'n\xc3\xa9amoins'
p2062
S'n\xc3\xa9anmoins'
p2063
sS'refroidissemnt'
p2064
S'refroidissement'
p2065
sS'Pittsburg'
p2066
S'Pittsburgh'
p2067
sS'parmis'
p2068
S'parmi'
p2069
sS'commeheel'
p2070
S'comme heel'
p2071
sS'psudonyme'
p2072
S'pseudonyme'
p2073
sS'constament'
p2074
S'constamment'
p2075
sS'Airbus'
p2076
S'EADS'
p2077
sS'r\xc3\xa9sonnance'
p2078
S'r\xc3\xa9sonance'
p2079
sS'surout'
p2080
S'surtout'
p2081
sS'Bibloth\xc3\xa8que'
p2082
S'Biblioth\xc3\xa8que'
p2083
sS'ed'
p2084
S'\xc3\xa9d'
p2085
sS'Jarraudsdans'
p2086
S'Jarrauds dans'
p2087
sS'\xc3\xa8me'
p2088
S'e'
p2089
sS'Exer\xc3\xa7ant'
p2090
S'Durant'
p2091
sS'Phnem'
p2092
S'Phnom'
p2093
sS'Picts'
p2094
S'Pictes'
p2095
sS'PHOTOGRAPHEGeorges'
p2096
S'photographieGeorges'
p2097
sS'JJean'
p2098
S'Jean'
p2099
sS'Visitations'
p2100
S'Visitation'
p2101
sS'Lui'
p2102
S'Liu'
p2103
sS'affluent'
p2104
S'sous-affluent'
p2105
sS'rumeur'
p2106
S'rumeurs'
p2107
sS'relach\xc3\xa9'
p2108
S'rel\xc3\xa2ch\xc3\xa9'
p2109
sS'surcafe'
p2110
S'surface'
p2111
sS'Trasmission'
p2112
S'Transmission'
p2113
sS'Ile-de-France'
p2114
S'\xc3\x8ele-de-France'
p2115
sS'communbaut\xc3\xa9e'
p2116
S'communaut\xc3\xa9e'
p2117
sS'national-catholique'
p2118
S'patriotique "'
p2119
sS'administrtaivement'
p2120
S'administrativement'
p2121
sS'Australieavec'
p2122
S'Australie avec'
p2123
sS'Paris-Brest'
p2124
S'Paris-Rennes-Brest'
p2125
sS'Certains'
p2126
S'Certaines'
p2127
sS'concue'
p2128
S'con\xc3\xa7ue'
p2129
sS'empocha'
p2130
S'empoche'
p2131
sS'G\xc3\xa9nral'
p2132
S'G\xc3\xa9n\xc3\xa9ral'
p2133
sS'Pr\xc3\xa9sentztion'
p2134
S'Pr\xc3\xa9sentation'
p2135
sS'asymptote'
p2136
S'asymptotes'
p2137
sS'ga\xc3\xaet\xc3\xa9'
p2138
S'gaiet\xc3\xa9'
p2139
sS'G'
p2140
S'G,'
p2141
sS'Freedberg|'
p2142
S'Freedberg'
p2143
sS'constemment'
p2144
S'constamment'
p2145
sS'romann'
p2146
S'roman'
p2147
sS'laa'
p2148
S'la'
p2149
sS'parano\xc3\xafaque'
p2150
S'parano\xc3\xafde'
p2151
sS'Teiss\xc3\xa8dre-Editions'
p2152
S'Teiss\xc3\xa8dre-\xc3\x89ditions'
p2153
sS'Nouvelles'
p2154
S'Nouvelle'
p2155
sS'hyper-calvinismeest'
p2156
S'hyper-calvinisme est'
p2157
sS'Etats-nis'
p2158
S'\xc3\x89tats-nis'
p2159
sS'gouveurneur'
p2160
S'gouverneur'
p2161
sS'Kawab'
p2162
S'Kaouab'
p2163
sS'traditionel'
p2164
S'traditionnel'
p2165
sS'Dollman'
p2166
S'Dollmann'
p2167
sS'Abdul-Aziz'
p2168
S'Abdulaziz'
p2169
sS'd\xc3\xa9singn\xc3\xa9e'
p2170
S'd\xc3\xa9sign\xc3\xa9e'
p2171
sS'rappeur'
p2172
S'rappeurs'
p2173
sS'r\xc3\xa9endonctriner'
p2174
S'r\xc3\xa9endoctriner'
p2175
sS'Erik'
p2176
S'Eric'
p2177
sS'* mort'
p2178
S'** Mort'
p2179
sS'comte'
p2180
S'compte'
p2181
sS'caotchouc'
p2182
S'caoutchouc'
p2183
sS'1000'
p2184
S'200'
p2185
sS'halback'
p2186
S'halfback'
p2187
sS'lorque'
p2188
S'lorsque'
p2189
sS'6h30'
p2190
S'18h30'
p2191
sS'1776-1821'
p2192
S'1776 -1821'
p2193
sS'ormes'
p2194
S'formes'
p2195
sS'devriendra'
p2196
S'deviendra'
p2197
sS'oppoe'
p2198
S'oppose'
p2199
sS'caff\xc3\xa9'
p2200
S'caf\xc3\xa9'
p2201
sS'carat\xc3\xa9ristique'
p2202
S'caract\xc3\xa9ristique'
p2203
sS'd\xc3\xa9centration'
p2204
S'd\xc3\xa9centralisation'
p2205
sS'html-quand'
p2206
S'html -quand'
p2207
sS'Black'
p2208
S'Blacks'
p2209
sS'Viry-Chatillon'
p2210
S'Viry-Ch\xc3\xa2tillon'
p2211
sS'mini-golf'
p2212
S'minigolf'
p2213
sS'cloture'
p2214
S'cl\xc3\xb4ture'
p2215
sS'Franc-Ma\xc3\xa7onss'
p2216
S'Franc-Ma\xc3\xa7ons'
p2217
sS'pokemon'
p2218
S'Pok\xc3\xa9mon'
p2219
sS'Giani'
p2220
S'Gianni'
p2221
sS'Echanges'
p2222
S'\xc3\x89changes'
p2223
sS'Levy'
p2224
S'L\xc3\xa9vy'
p2225
sS'achev\xc3\xa9rent'
p2226
S'achev\xc3\xa8rent'
p2227
sS'plaine'
p2228
S'pleine'
p2229
sS'ingr\xc3\xa9gients'
p2230
S'ingr\xc3\xa9dients'
p2231
sS'Ota'
p2232
S'\xc5\x8cta'
p2233
sS'Hoffman'
p2234
S'Hoffmann'
p2235
sS'aujopurd'
p2236
S'aujourd'
p2237
sg926
S'en'
p2238
sS'1e'
p2239
S'1 e'
p2240
sS'\xe1\xb9\xa3if\xc5\xabra'
p2241
S'if\xc5\xabra'
p2242
sS'Date'
p2243
S'Dates'
p2244
sS'Uses'
p2245
S'Uz\xc3\xa8s'
p2246
sS'XIIe'
p2247
S'XII e'
p2248
sS'meme'
p2249
S'm\xc3\xaame'
p2250
sS'conc\xc3\xa8rne'
p2251
S'concerne'
p2252
sS'Monpellier'
p2253
S'Montpellier'
p2254
sS'Zymunt'
p2255
S'Zygmunt'
p2256
sS'berbere'
p2257
S'berb\xc3\xa8re'
p2258
sS'seau'
p2259
S'sceau'
p2260
sS'\xc3\xbfFran\xc3\xa7oise'
p2261
S'Fran\xc3\xa7oise'
p2262
sS'Banlieu'
p2263
S'Banlieue'
p2264
sS'11'
p2265
S'9'
p2266
sS'10'
p2267
S'dix'
p2268
sS'13'
p2269
S'14'
p2270
sS'remord'
p2271
S'remords'
p2272
sS'Ugonilo'
p2273
S'Ugolino'
p2274
sS'14'
p2275
S'10'
p2276
sS'17'
p2277
S'16'
p2278
sS'16'
p2279
S'20'
p2280
sS'19'
p2281
S'douze'
p2282
sS'18'
p2283
S'16'
p2284
sS'quelque-pert'
p2285
S'quelque-part'
p2286
sS'20millions'
p2287
S'20 millions'
p2288
sS'commen\xc3\xa7\xc3\xa8rent'
p2289
S'commenc\xc3\xa8rent'
p2290
sS'Malheuresement'
p2291
S'Malheureusement'
p2292
sS't\xc3\xa9stament'
p2293
S'testament'
p2294
sS'vouloait'
p2295
S'voulait'
p2296
sS'Fabaceae'
p2297
S'fabac\xc3\xa9es'
p2298
sS'hypercondansation'
p2299
S'hypercondensation'
p2300
sS'poss\xc3\xa8dant'
p2301
S'poss\xc3\xa9dant'
p2302
sS'laala'
p2303
S'l\xc3\xa9har'
p2304
sS'Nicolet-Sud'
p2305
S'Nicolet-Sud-Ouest'
p2306
sS'transorm\xc3\xa9e'
p2307
S'transform\xc3\xa9e'
p2308
sS'implentation'
p2309
S'implantation'
p2310
sS'\xe1\xb8\xa5\xc5\xabb\xc4\x81b'
p2311
S'\xc5\xabb\xc4\x81b'
p2312
sS'and'
p2313
S'et'
p2314
sS'ISBN290973305X'
p2315
S'ISBN 290973305X'
p2316
sS'choqu\xc3\xa9es'
p2317
S'choquer'
p2318
sS'aggression'
p2319
S'agression'
p2320
sS'T\xc3\xb4ru'
p2321
S'T\xc5\x8dru'
p2322
sS'Ag\xc3\xa9e'
p2323
S'\xc3\x82g\xc3\xa9e'
p2324
sS'Pissaro'
p2325
S'Pissarro'
p2326
sS'Juifs-('
p2327
S'" Juifs " -('
p2328
sS'gasthornid\xc3\xa9s'
p2329
S'gasthornithid\xc3\xa9s'
p2330
sS'g\xc3\xb4ut'
p2331
S'go\xc3\xbbt'
p2332
sS'dasn'
p2333
S'dans'
p2334
sS'onze'
p2335
S'neuf'
p2336
sS'borough'
p2337
S'quartier'
p2338
sS'antis\xc3\xa9mistime'
p2339
S'antis\xc3\xa9mitime'
p2340
sS'coralli\xc3\xa9nne'
p2341
S'corallienne'
p2342
sS'asstsornomiques'
p2343
S'astrpnomiques'
p2344
sS'4163'
p2345
S'4 163'
p2346
sS'Madrid-Seville'
p2347
S'Madrid-S\xc3\xa9ville'
p2348
sS'S .'
p2349
S'San'
p2350
sS'Ecrivain'
p2351
S'\xc3\x89crivain'
p2352
sS'De'
p2353
S': de'
p2354
sS'jud\xc3\xa9en'
p2355
S'talmudique'
p2356
sS'biensqui'
p2357
S'biens qui'
p2358
sS'car\xc3\xa9e'
p2359
S'carr\xc3\xa9e'
p2360
sS'canadienne'
p2361
S'allemande'
p2362
sS'5800'
p2363
S'5 800'
p2364
sS'conditioons'
p2365
S'conditions'
p2366
sS'coincida'
p2367
S'co\xc3\xafncida'
p2368
sS'monagnes'
p2369
S'montagnes'
p2370
sS'200'
p2371
S'250'
p2372
sS'No\xc3\xaal'
p2373
S'No\xc3\xabl'
p2374
sS'rapellant'
p2375
S'rappelant'
p2376
sS'1re'
p2377
S'1er'
p2378
sS'206'
p2379
S'2006'
p2380
sS'Pantaleone'
p2381
S'Pantalone'
p2382
sS'actiait'
p2383
S'actionnait'
p2384
sS'appairait'
p2385
S'apparait'
p2386
sS'Dnas'
p2387
S'Dans'
p2388
sS'Kerk'
p2389
S'Kerk-NGK'
p2390
sS'beaucoups'
p2391
S'beaucoup'
p2392
sS'Mulvey'
p2393
S'Mulvay'
p2394
sS'Boudreau'
p2395
S'Boudreault'
p2396
sS'21i\xc3\xa8me'
p2397
S'22i\xc3\xa8me'
p2398
sS'K\xc3\xa9r\xc3\xa8s'
p2399
S'Keres'
p2400
sS'Osselet'
p2401
S'Germignon'
p2402
sS'Elicia'
p2403
S'\xc3\x89licia'
p2404
sS'2230'
p2405
S'230'
p2406
sS'Lcentre'
p2407
S'Le centre'
p2408
sS'sanculotides'
p2409
S'sans-culottides'
p2410
sS'aig\xc3\xbce'
p2411
S'aigu\xc3\xab'
p2412
sS'nourisson'
p2413
S'nourrisson'
p2414
sS'ferrari'
p2415
S', Ferrari'
p2416
sS'appeur\xc3\xa9e'
p2417
S'effray\xc3\xa9e'
p2418
sS'repr\xc3\xa9saille'
p2419
S'repr\xc3\xa9sailles'
p2420
sS'lAnti-\xc5\x92dipe'
p2421
S'lAnti-Oedipe'
p2422
sS'Bad-W\xc3\xbcrttemberg'
p2423
S'Bade-Wurtemberg'
p2424
sS'Terreet'
p2425
S'Terre et'
p2426
sS'D1'
p2427
S'D2'
p2428
sS'Beuvais'
p2429
S'Beauvais'
p2430
sS'5MHz'
p2431
S'5 MHz'
p2432
sS'empbarquer'
p2433
S'embarquer'
p2434
sS'Novelle'
p2435
S'Novell'
p2436
sS'Mylene'
p2437
S'Myl\xc3\xa8ne'
p2438
sS'abbr\xc3\xa9viation'
p2439
S'abr\xc3\xa9viation'
p2440
sS'Gricquas'
p2441
S'Griquas'
p2442
sS'30-40'
p2443
S'1930-40'
p2444
sS'aggressive'
p2445
S'agressive'
p2446
sS'Kara-Bougaz'
p2447
S'Kara-Bogaz'
p2448
sS'naturellemnt'
p2449
S'naturellement'
p2450
sS'humouristique'
p2451
S'humoristique'
p2452
sS'historien'
p2453
S'g\xc3\xa9n\xc3\xa9alogiste'
p2454
sS'\xc4\xb0stanbul'
p2455
S'Istanbul'
p2456
sS'30-1970'
p2457
S'1860-1970'
p2458
sS'manoeuvre'
p2459
S'man\xc5\x93uvre'
p2460
sS'prestidigitateur'
p2461
S'mentaliste'
p2462
sS'200000'
p2463
S'200 000'
p2464
sS'Sainte-Clair'
p2465
S'Sainte-Claire'
p2466
sS'en1962'
p2467
S'en 1962'
p2468
sS'informaztique'
p2469
S'informatique'
p2470
sS'XII'
p2471
S'XIIe'
p2472
sS'Michae'
p2473
S'Michael'
p2474
sS'ladistillation'
p2475
S'la distillation'
p2476
sS'a^ge'
p2477
S'\xc3\xa2ge'
p2478
sS'\xe4\xb8\x89\xe5\xa4\x9a\xe6\x91\xa9\xe5\x9c\xb0\xe5\x9f\x9f'
p2479
S'\xe5\xa4\x9a\xe6\x91\xa9\xe5\x9c\xb0\xe5\x8c\xba'
p2480
sS'M\xc3\xbcnich'
p2481
S'Munich'
p2482
sS'Amis'
p2483
S'Ami'
p2484
sS'n\xc3\xa9cecitte'
p2485
S'n\xc3\xa9cessite'
p2486
sS'marquants'
p2487
S'marquantes'
p2488
sS'Tziganes'
p2489
S'Tsiganes'
p2490
sS'1820'
p2491
S'1800'
p2492
sS'\xc3\xa9bulition'
p2493
S'\xc3\xa9bullition'
p2494
sS'malette'
p2495
S'mallette'
p2496
sS'N\xc3\xa9n\xc3\xa8tsess'
p2497
S'N\xc3\xa9n\xc3\xa8tses'
p2498
sS'constuire'
p2499
S'construire'
p2500
sS'amande'
p2501
S'amandes'
p2502
sS'sulpician'
p2503
S'sulpicien'
p2504
sS'Education'
p2505
S'\xc3\xa9ducation'
p2506
sS'ctitis'
p2507
S'Actitis'
p2508
sS'gout'
p2509
S'go\xc3\xbbt'
p2510
sS'cehvalier'
p2511
S'chevalier'
p2512
sS'telenantes'
p2513
S't\xc3\xa9l\xc3\xa9nantes'
p2514
sS'h\xc3\xa9sitants'
p2515
S'h\xc3\xa9sitant'
p2516
sS'Wagnertout'
p2517
S'Wagner tout'
p2518
sS'minigun'
p2519
S'minicanon'
p2520
sS'opiac\xc3\xa9e'
p2521
S'opiac\xc3\xa9'
p2522
sS'1920'
p2523
S'1930'
p2524
sS'1921'
p2525
S'1912 :'
p2526
sS'1922'
p2527
S'1932'
p2528
sS'survieMon'
p2529
S'survie Mon'
p2530
sS'fff'
p2531
S'f00'
p2532
sS'1928'
p2533
S'1944'
p2534
sS'M\xc3\xb6quet'
p2535
S'M\xc3\xb4quet'
p2536
sS'Chritopher'
p2537
S'Christopher'
p2538
sS'aide-soigante'
p2539
S'aide-soignante'
p2540
sS'Al-Anb\xc3\xa2r'
p2541
S'Al-AnbarAl-Anb\xc3\xa2r'
p2542
sS'. Une'
p2543
S': une'
p2544
sS'sp\xc3\xa9cimens'
p2545
S'esp\xc3\xa8ces'
p2546
sS'3'
p2547
S'trois'
p2548
sS'silts'
p2549
S'lutites'
p2550
sS'Picco'
p2551
S'Picoo'
p2552
sS'millards'
p2553
S'milliards'
p2554
sS'pr\xc3\xa9voayit'
p2555
S'pr\xc3\xa9voyait'
p2556
sS'" tait'
p2557
S'\xc3\xa9tait'
p2558
sS'25'
p2559
S'26'
p2560
sS'-93'
p2561
S'-1993'
p2562
sS'diposent'
p2563
S'disposent'
p2564
sS'26'
p2565
S'20'
p2566
sS'initiallement'
p2567
S'initialement'
p2568
sS'March'
p2569
S'Mars'
p2570
sS'Quatres'
p2571
S'Quatre'
p2572
sS'Nantes7'
p2573
S'Nantes 7'
p2574
sS'mauritien'
p2575
S'mauricien'
p2576
sS'21'
p2577
S'31'
p2578
sS'nvales'
p2579
S'navales'
p2580
sS'recompte'
p2581
S'raconte'
p2582
sS'Parigi'
p2583
S'Paris'
p2584
sS'acceuil'
p2585
S'accueil'
p2586
sS'Lindermann'
p2587
S'Linderman'
p2588
sS'ternational'
p2589
S'international'
p2590
sS'23'
p2591
S'20'
p2592
sS'D\xc3\xa9mocratuque'
p2593
S'D\xc3\xa9mocratique'
p2594
sS'catilagineux'
p2595
S'cartilagineux'
p2596
sS'vut'
p2597
S'vit'
p2598
sS'Hanns-Martin'
p2599
S'Hans-Martin'
p2600
sS'consitent'
p2601
S'constituent'
p2602
sS'rasssemblant'
p2603
S'rassemblant'
p2604
sS'Cantepiano'
p2605
S'Cantopiano'
p2606
sS'autro-hongrois'
p2607
S'austro-hongrois'
p2608
sS'Jeremy'
p2609
S'J\xc3\xa9r\xc3\xa9my'
p2610
sS'apperentis'
p2611
S'apprentis'
p2612
sS'Jose'
p2613
S'Jos\xc3\xa9'
p2614
sS'jettant'
p2615
S'jetant'
p2616
sS'pou'
p2617
S'pour'
p2618
sS'Chevalier'
p2619
S'fer'
p2620
sS'Principale'
p2621
S'_ principale'
p2622
sS'pop'
p2623
S'populaire'
p2624
sS'60'
p2625
S'1960'
p2626
sS'dreapeau'
p2627
S'drapeau'
p2628
sS'3000'
p2629
S'3 000'
p2630
sS'67'
p2631
S'67-68'
p2632
sS'68'
p2633
S'69'
p2634
sS'fran\xc3\xa7aisde'
p2635
S'fran\xc3\xa7ais de'
p2636
sS'j\xc3\xa8te'
p2637
S'jette'
p2638
sS'Etterbeck'
p2639
S'Etterbeek'
p2640
sS'transformante'
p2641
S'coulissante'
p2642
sS'Ecologie'
p2643
S'\xc3\xa9cologie'
p2644
sS'Gand\xc3\xa8n'
p2645
S'Ganden'
p2646
sS'perp\xc3\xa9tre'
p2647
S'perp\xc3\xa8tre'
p2648
sS'fighteren'
p2649
S'fighter en'
p2650
sS'canton\xc3\xa9'
p2651
S'cantonn\xc3\xa9'
p2652
sS'plusikeurs'
p2653
S'plusieurs'
p2654
sS'sech\xc3\xa9'
p2655
S's\xc3\xa9ch\xc3\xa9'
p2656
sS'Sharjah'
p2657
S'Charjah'
p2658
sS'\xc3\xa0Sanremo'
p2659
S'\xc3\xa0 Sanremo'
p2660
sS'\xc3\xa9ffondrer'
p2661
S'effondrer'
p2662
sS'sc\xc3\xa9nariste'
p2663
S'r\xc3\xa9alisateur'
p2664
sS'Higan'
p2665
S'Hogan'
p2666
sS'Dieux'
p2667
S'Dieu'
p2668
sS'specrte'
p2669
S'spectre'
p2670
sS'\xc3\xa9figie'
p2671
S'effigie'
p2672
sS'Kublai'
p2673
S'Kubilai'
p2674
sS'Adul'
p2675
S'Abul'
p2676
sS'Parmenion'
p2677
S'Parm\xc3\xa9nion'
p2678
sS'85kilos'
p2679
S'85kg'
p2680
sS'innondations'
p2681
S'inondations'
p2682
sS't,"'
p2683
S't,'
p2684
sS'parfoid'
p2685
S'parfois'
p2686
sS'nassim'
p2687
S'Hitler'
p2688
sS'Ombreterre'
p2689
S'Outreterre'
p2690
sS'Roi-Georges'
p2691
S'Roi-George'
p2692
sS'd\xc3\xa9coulent'
p2693
S'd\xc3\xa9couleraient'
p2694
sS'australei'
p2695
S'Australie'
p2696
sS'SAT1'
p2697
S'Sat'
p2698
sS'\xc3\xa9v\xc3\xa8nements'
p2699
S'\xc3\xa9v\xc3\xa9nements'
p2700
sS'le30'
p2701
S'le 30'
p2702
sS'Tenessee'
p2703
S'Tennessee'
p2704
sS'judicita'
p2705
S'judicata'
p2706
sS'facon'
p2707
S'fa\xc3\xa7on'
p2708
sS'( 1997a).'
p2709
S'(1997a).'
p2710
sS'canon'
p2711
S'canons'
p2712
sS'converti'
p2713
S'convertie'
p2714
sS'reliefs'
p2715
S'hauts-reliefs'
p2716
sS'clandestiment'
p2717
S'clandestinement'
p2718
sS'dissout'
p2719
S'dissous'
p2720
sS'XXe'
p2721
S'XX e'
p2722
sS'Burgo'
p2723
S'Burgh'
p2724
sS'Deoxis'
p2725
S'Deoxys'
p2726
sS'Dot\xc3\xa9e'
p2727
S'Dot\xc3\xa9'
p2728
sS'diplom\xc3\xa9e'
p2729
S'dipl\xc3\xb4m\xc3\xa9e'
p2730
sS'greque'
p2731
S'grecque'
p2732
sS'Israel'
p2733
S'Isra\xc3\xabl'
p2734
sS'Icebergsde'
p2735
S'Icebergs de'
p2736
sS's\xc3\xa9isme'
p2737
S"qu '"
p2738
sS', intitiallemant'
p2739
S'( initiallement'
p2740
sS'leRikshospitalet-Radiumhospitalet'
p2741
S'le Rikshospitalet-Radiumhospitalet'
p2742
sS'1991>.'
p2743
S'1991 .'
p2744
sS'I/'
p2745
S'II /'
p2746
sS'Stalingrade'
p2747
S'Stalingrad'
p2748
sS'Carol'
p2749
S'Caroll'
p2750
sS'Eric-Emmanuel'
p2751
S'\xc3\x89ric-Emmanuel'
p2752
sS'sarrin'
p2753
S'sarin'
p2754
sS'Bosnie'
p2755
S'Bosnie-Herz\xc3\xa9govine'
p2756
sS'd\xc3\xa9sesperer'
p2757
S'd\xc3\xa9sesper\xc3\xa9'
p2758
sS'partits'
p2759
S'partis'
p2760
sS'I'
p2761
S'Ier'
p2762
sS'batiment'
p2763
S'B\xc3\xa2timent'
p2764
sS'Gr\xc3\xbcss'
p2765
S'Gruss'
p2766
sS'Electriques'
p2767
S'\xc3\x89lectriques'
p2768
sS'II'
p2769
S'Ier'
p2770
sS'Projectile44'
p2771
S'Projectile'
p2772
sS'" hommes'
p2773
S'executores'
p2774
sS'\xe6\x9d\xb1\xe4\xba\xac\xe7\x89\xb9\xe5\x88\xa5\xe5\x8c\xba'
p2775
S'\xe6\x9d\xb1\xe4\xba\xac\xe9\x83\xbd'
p2776
sS'I .'
p2777
S'I.'
p2778
sS'Malais'
p2779
S'm\xc3\xa9tis'
p2780
sS'oppidium'
p2781
S'oppidum'
p2782
sS'bonshommes'
p2783
S'bonhommes'
p2784
sS'auant'
p2785
S'ayant'
p2786
sS'\xc3\xa9vantail'
p2787
S'\xc3\xa9ventail'
p2788
sS'\xc3\xa9pisodr'
p2789
S'\xc3\xa9pisode'
p2790
sS'arabe\xd9\xb3\xd8\xb3\xd8\xaa\xd8\xb1'
p2791
S'\xd9\xb3\xd8\xb3\xd8\xaa\xd8\xb1'
p2792
sS'Wilfried'
p2793
S'Wilfrid'
p2794
sS'TV'
p2795
S't\xc3\xa9l\xc3\xa9vision'
p2796
sS'COMPORM'
p2797
S'COMPORN'
p2798
sS'Il'
p2799
S'Elle'
p2800
sS'in\xc3\xa9e'
p2801
S'inn\xc3\xa9e'
p2802
sS'farfelus'
p2803
S'farfelues'
p2804
sS'Mourrir'
p2805
S'Mourir'
p2806
sS'XVe'
p2807
S'XV e'
p2808
sS'Enseignent'
p2809
S'Enseignant'
p2810
sS'Pink'
p2811
S'Paint'
p2812
sS'ex .'
p2813
S'exemple'
p2814
sS'Dextrase'
p2815
S'Dextraze-Monast'
p2816
sS'Moyen-Age'
p2817
S'Moyen-\xc3\x82ge'
p2818
sS'd\xc3\xa9sesp\xc3\xa9ment'
p2819
S'd\xc3\xa9sesp\xc3\xa9r\xc3\xa9ment'
p2820
sS'1980\xc3\xa0'
p2821
S'1980 \xc3\xa0'
p2822
sS'Poenalia'
p2823
S'P\xc5\x93nalia'
p2824
sS'\xc3\x89alant'
p2825
S'\xc3\x89talant'
p2826
sS'onomatop\xc3\xa9e'
p2827
S'interjection'
p2828
sS'nationaliste'
p2829
S'ultranationaliste'
p2830
sS'apparteinnent'
p2831
S'appartiennent'
p2832
sS'NAT'
p2833
S'Nat .'
p2834
sS'Cependant'
p2835
S'Cepenfant'
p2836
sS'cpntre'
p2837
S'contre'
p2838
sS'Adolphe'
p2839
S'Adolf'
p2840
sS'\xc3\xa9v\xc3\xa9nement-Ashlyn'
p2841
S'\xc3\xa9v\xc3\xa8nement-Ashlyn'
p2842
sS'Menphis'
p2843
S'Memphis'
p2844
sS'Saint-Angeen'
p2845
S'Saint-Ange en'
p2846
sS'Electronique'
p2847
S'\xc3\xa9lectronique'
p2848
sS'Saint-Joseph-Travailleur'
p2849
S'Saint-Joseph Travailleur'
p2850
sS'a\xc3\xb4ut'
p2851
S'ao\xc3\xbbt'
p2852
sS'tyrannoeil'
p2853
S'tyrann\xc5\x93il'
p2854
sS'\xc3\xa9curieToleman'
p2855
S'\xc3\xa9curie Toleman'
p2856
sS'pionier'
p2857
S'pionnier'
p2858
sS'J53'
p2859
S'J55'
p2860
sS'audio-visuel'
p2861
S'audiovisuel'
p2862
sg928
g854
sS'tr\xc3\xa8'
p2863
S'tr\xc3\xa8s'
p2864
sS'propulseent'
p2865
S'propulsent'
p2866
sS'VVC'
p2867
S'VVTs'
p2868
sS'commes'
p2869
S'comme'
p2870
sS'arrondissemnt'
p2871
S', arrondissement'
p2872
sS'Boissy-St-L\xc3\xa9ger'
p2873
S'Boissy-Saint-L\xc3\xa9ger'
p2874
sS'traditionelleSorek'
p2875
S'traditionnelleSorek'
p2876
sS'accompacher'
p2877
S'accompagner'
p2878
sS'1777-1832'
p2879
S'1777 -1832'
p2880
sS'Selune'
p2881
S'Selun\xc3\xa9'
p2882
sS'psa'
p2883
S'pas'
p2884
sS'Bouthan'
p2885
S'Bhoutan'
p2886
sS'progessivement'
p2887
S'progressivement'
p2888
sS'Tous'
p2889
S'Tout'
p2890
sS'traffic'
p2891
S'trafic'
p2892
sS'chaqu\xc3\xa9'
p2893
S'chaque'
p2894
sS'Hugenburg'
p2895
S'Hugenberg'
p2896
sS'Etats-UnisParmi'
p2897
S'\xc3\x89tats-UnisParmi'
p2898
sS'Wynn'
p2899
S'Wyn'
p2900
sS'Pic'
p2901
S'Picq'
p2902
sS'extr\xc3\xaament'
p2903
S'extr\xc3\xaamement'
p2904
sS'\xc3\xa9qualiseaur'
p2905
S'\xc3\xa9qualiseur'
p2906
sS'1989'
p2907
S'1889'
p2908
sS'changeat'
p2909
S'changea'
p2910
sS'Elles'
p2911
S'Ils'
p2912
sS'Nee'
p2913
S'N\xc3\xa9e'
p2914
sS'dolf'
p2915
S'Adolf'
p2916
sS'\xc3\xa9loign\xc3\xa9'
p2917
S'\xc3\xa9loign\xc3\xa9e'
p2918
sS'granit'
p2919
S'granite'
p2920
sS'prot\xc3\xa9g\xc3\xa9\xc3\xa0'
p2921
S'prot\xc3\xa9g\xc3\xa9 \xc3\xa0'
p2922
sS'Hydrophylax'
p2923
S'Hydrophyla'
p2924
sS'Alfred'
p2925
S"' lfred"
p2926
sS'Boh\xc3\xa8me'
p2927
S'Boh\xc3\xaame'
p2928
sS'sh\xc3\xa9matiques'
p2929
S'sch\xc3\xa9matiques'
p2930
sS'Clermont-Ferrando\xc3\xb9'
p2931
S'Clermont-Ferrand o\xc3\xb9'
p2932
sS'Kapellmeister'
p2933
S'Hofkapellmeister'
p2934
sS'chansonavec'
p2935
S'chanson avec'
p2936
sS'1853'
p2937
S'1883'
p2938
sS'traversable'
p2939
S'empruntable'
p2940
sS'ddu'
p2941
S'du'
p2942
sS'kms'
p2943
S'kilom\xc3\xa8tres'
p2944
sS'epagnuel'
p2945
S'\xc3\xa9pagneul'
p2946
sS'princimapement'
p2947
S'principalement'
p2948
sS'derneir'
p2949
S'dernier'
p2950
sS'model\xc3\xa9s'
p2951
S'model\xc3\xa9'
p2952
sS'h\xc3\xb4telli\xc3\xa8re'
p2953
S'h\xc3\xb4teli\xc3\xa8re'
p2954
sS'XIV\xc3\xa8me'
p2955
S'XIVe'
p2956
sS'r\xc3\xa8glement\xc3\xa9e'
p2957
S'r\xc3\xa9glement\xc3\xa9e'
p2958
sS'aquit'
p2959
S'acquit'
p2960
sS'pylone'
p2961
S'pyl\xc3\xb4ne'
p2962
sS'1937'
p2963
S'1938'
p2964
sS'1936'
p2965
S'1931'
p2966
sS'Corino'
p2967
S'Corrino'
p2968
sS'1934'
p2969
S'1947'
p2970
sS'Tommisont'
p2971
S'Tommi sont'
p2972
sS'recu'
p2973
S're\xc3\xa7u'
p2974
sS'Tordesilles'
p2975
S'Tordesillas'
p2976
sS'chassan'
p2977
S'chassant'
p2978
sS'jetter'
p2979
S'jeter'
p2980
sS'of'
p2981
S'de'
p2982
sS'premmier'
p2983
S'premier'
p2984
sS'Avars'
p2985
S'avare'
p2986
sS', si'
p2987
S"s'"
p2988
sS'Clack'
p2989
S'Clark'
p2990
sS', sa'
p2991
S'. Sa'
p2992
sS'Centers'
p2993
S'Center'
p2994
sS'sur\xc3\xa9ervation'
p2995
S'sur\xc3\xa9servation'
p2996
sS'" les'
p2997
S'Les'
p2998
sS'cicuit'
p2999
S'circuit'
p3000
sS'Pariseau'
p3001
S'Parizeau'
p3002
sS'invers'
p3003
S'inverse'
p3004
sS'france ).'
p3005
S'France ) .'
p3006
sS'Paint'
p3007
S'Pink'
p3008
sS'Boddanov'
p3009
S'Bogdanov'
p3010
sS'Erei'
p3011
S'H\xc3\xa9r\xc3\xa9ens'
p3012
sS'D\xc3\xa9riv\xc3\xa9e'
p3013
S'D\xc3\xa9riv\xc3\xa9'
p3014
sS'succ\xc3\xa9de'
p3015
S'succ\xc3\xa8de'
p3016
sS'XIII\xc3\xa8me'
p3017
S'XIIIe'
p3018
sS'log'
p3019
S'ln'
p3020
sS'enmen\xc3\xa9e'
p3021
S'emmen\xc3\xa9e'
p3022
sS'NB'
p3023
S'** N'
p3024
sS'rqui'
p3025
S'qui'
p3026
sS'Baton'
p3027
S'B\xc3\xa2ton'
p3028
sS'**1er'
p3029
S'** 1 er'
p3030
sS'1852par'
p3031
S'1852 par'
p3032
sS'blaasubalternes'
p3033
S'subalternes'
p3034
sS'assi\xc3\xa8geante'
p3035
S'assi\xc3\xa9geante'
p3036
sS'personalit\xc3\xa9s'
p3037
S'personnalit\xc3\xa9s'
p3038
sS'" la'
p3039
S'. La'
p3040
sS'recencement'
p3041
S'recensement'
p3042
sS'Milliard'
p3043
S'Milliards'
p3044
sS'\xc3\x80pr\xc3\xa8s'
p3045
S'Apr\xc3\xa8s'
p3046
sS'Enn'
p3047
S'En'
p3048
sS'innond\xc3\xa9e'
p3049
S'inond\xc3\xa9e'
p3050
sS'1592'
p3051
S'1596'
p3052
sS'Anti-Oedipe-Capitalisme'
p3053
S'Anti-\xc5\x92dipe-Capitalisme'
p3054
sS'condann\xc3\xa9e'
p3055
S'condamn\xc3\xa9e'
p3056
sS'aggravant'
p3057
S'accentuant'
p3058
sS'Kabukicho'
p3059
S'Kabuki-ch\xc5\x8d'
p3060
sS'carract\xc3\xa9ristique'
p3061
S'caract\xc3\xa9ristique'
p3062
sS'disaine'
p3063
S'dizaine'
p3064
sS'ETATS-UNIS'
p3065
S'\xc3\x89tats-Unis'
p3066
sS'\xc3\xa0Hugues'
p3067
S'\xc3\xa0 Hugues'
p3068
sS'extermination'
p3069
S'\xc3\xa9radication'
p3070
sS'contruite'
p3071
S'construite'
p3072
sS'Eddie'
p3073
S'Edie'
p3074
sS'ultra-racisme'
p3075
S'ultraracisme'
p3076
sS'mal\xc3\xa9fiques'
p3077
S'mal\xc3\xa9fique'
p3078
sS'exclu'
p3079
S'exclut'
p3080
sS'mobndiale'
p3081
S'mondiale'
p3082
sS'ac'
p3083
S'avec'
p3084
sS'Porche'
p3085
S'Porsche'
p3086
sS'USA'
p3087
S'\xc3\x89tats-Unis'
p3088
sS'r\xc3\xa9sisatance'
p3089
S'r\xc3\xa9sistance'
p3090
sS'd\xc3\xa9toxyfication'
p3091
S'd\xc3\xa9toxification'
p3092
sS'diff\xc3\xa9renceiation'
p3093
S'diff\xc3\xa9renciation'
p3094
sS'Oeuvre'
p3095
S'\xc5\x92uvre'
p3096
sS'Barth\xc3\xa8s'
p3097
S'Barthes'
p3098
sS'savoureux'
p3099
S'r\xc3\xa9put\xc3\xa9'
p3100
sS'environement'
p3101
S'environnement'
p3102
sS'Simonne'
p3103
S'Simone'
p3104
sS'Salluvii'
p3105
S'Salyens'
p3106
sS'ay'
p3107
S'au'
p3108
sS'ax'
p3109
S'aux'
p3110
sS'seranistes'
p3111
S'sertanistes'
p3112
sS'engagrant'
p3113
S'engageant'
p3114
sS'sanqs'
p3115
S'sans'
p3116
sS'cofonde'
p3117
S'co-fonde'
p3118
sS'semsibles'
p3119
S'sensibles'
p3120
sS'Shorts'
p3121
S'Shirts'
p3122
sS'drivers'
p3123
S'pilotes'
p3124
sS'2000'
p3125
S'2002'
p3126
sS'Simpsons'
p3127
S'Simpson'
p3128
sg854
S'05'
p3129
sS'Slov\xc3\xa9nes'
p3130
S'Slov\xc3\xa8nes'
p3131
sS'souevnt'
p3132
S'souvent'
p3133
sS'Doppelg\xc3\xa4ngeren'
p3134
S'Doppelg\xc3\xa4nger en'
p3135
sS'deuzi\xc3\xa8me'
p3136
S'deuxi\xc3\xa8me'
p3137
sS'annnul\xc3\xa9'
p3138
S'annul\xc3\xa9'
p3139
sS'Dathi'
p3140
S'Dath\xc3\xad'
p3141
sS'2003-04'
p3142
S'2004-05'
p3143
sS'commencnet'
p3144
S'commencent'
p3145
sS'Entre'
p3146
S'Parmi'
p3147
sS'lesvilles'
p3148
S'les villes'
p3149
sS'Cordon'
p3150
S'Ruban'
p3151
sS'duqel'
p3152
S'duquel'
p3153
sS'tyran'
p3154
S'dirigeant'
p3155
sS'Broyage'
p3156
S'Brouage'
p3157
sS'conciliaire'
p3158
S'conciliaires'
p3159
sS'Pekin'
p3160
S'P\xc3\xa9kin'
p3161
sS'Ellena'
p3162
S'Ellana'
p3163
sS'r\xc3\xa9pendus'
p3164
S'r\xc3\xa9pandus'
p3165
sS'483'
p3166
S'700'
p3167
sS'100\xc2\xbaC'
p3168
S'100\xc2\xb0C'
p3169
sS'condamantion'
p3170
S'condamnation'
p3171
sS'N\xc3\xa9nets'
p3172
S'N\xc3\xa9n\xc3\xa8tses'
p3173
sS'commme'
p3174
S'comme'
p3175
sS'chevalerie'
p3176
S'noblesses'
p3177
sS'Artur'
p3178
S'Arthur'
p3179
sS'Bre'
p3180
S'Bree'
p3181
sS'chemein'
p3182
S'chemin'
p3183
sS'vversion'
p3184
S'version'
p3185
sS'fomer'
p3186
S'former'
p3187
sS'contourna'
p3188
S'\xc3\xa9carta'
p3189
sS'californie\xc3\xa0'
p3190
S'californie \xc3\xa0'
p3191
sS'rapportant'
p3192
S'pr\xc3\xa9senta'
p3193
sS'adition'
p3194
S'addition'
p3195
sS'XVIII\xc3\xa8'
p3196
S'XVIIIe'
p3197
sS'Var'
p3198
S'83'
p3199
sS'15'
p3200
S'16'
p3201
sS'egyptienne'
p3202
S'\xc3\xa9gyptienne'
p3203
sS'illusta'
p3204
S'illustra'
p3205
sS'Parmis'
p3206
S'Parmi'
p3207
sS'abondament'
p3208
S'abondamment'
p3209
sS'Csasanuts'
p3210
S'Casanuts'
p3211
sS'Vigneulle-l\xc3\xa8s-Hattonch\xc3\xa2tel'
p3212
S'Vigneulles-l\xc3\xa8s-Hattonch\xc3\xa2tel'
p3213
sS'astrpnomiques'
p3214
S'astronomiques'
p3215
sS'preserver'
p3216
S'pr\xc3\xa9server'
p3217
sS'aspets'
p3218
S'aspects'
p3219
sS'pizz\xc3\xa9ria'
p3220
S'pizzeria'
p3221
sS'Ecole'
p3222
S'\xc3\x89cole'
p3223
sS'daira'
p3224
S'da\xc3\xafra'
p3225
sS'Elle'
p3226
S'Il'
p3227
sS'bantoue'
p3228
S'bantou'
p3229
sS'Saint-Beno\xc3\xaet-L\xc3\xa2bre'
p3230
S'Saint-Beno\xc3\xaet-Labre'
p3231
sS'icone'
p3232
S'ic\xc3\xb4ne'
p3233
sS'sucide'
p3234
S'suicide'
p3235
sS'Saint-Laurentau'
p3236
S'Saint-Laurent au'
p3237
sS'\xd7\x92\xd7\x9c\xd7\x99\xd7\x9cen'
p3238
S'\xd7\x92\xd7\x9c\xd7\x99\xd7\x9c en'
p3239
sS'Corn\xc3\xa9lia'
p3240
S'Corn\xc3\xa9lie'
p3241
sS'M\xc3\xaare'
p3242
S'M\xc3\xa8re'
p3243
sS'laconscription'
p3244
S'la conscription'
p3245
sS'MJO'
p3246
S'OMJ'
p3247
sS'Schieffer'
p3248
S'Schiffer'
p3249
sS'r\xc3\xa9v\xc3\xa8ler'
p3250
S'r\xc3\xa9v\xc3\xa9ler'
p3251
sS'constuit'
p3252
S'construit'
p3253
sS'Coeurs'
p3254
S'C\xc5\x93urs'
p3255
sS'cantonn\xc3\xa9'
p3256
S'cantonner'
p3257
sS'prisoniers'
p3258
S'prisonniers'
p3259
sS'magicallement'
p3260
S'magicalement'
p3261
sS'disponnible'
p3262
S'disponible'
p3263
sS', ais'
p3264
S'mais'
p3265
sS'\xc3\xa9v\xc3\xa8nement'
p3266
S'\xc3\xa9v\xc3\xa8nements'
p3267
sS'Cantiacii'
p3268
S'Cantiaci'
p3269
sS'Sanit-Pol'
p3270
S'Saint-Pol'
p3271
sS'amorti'
p3272
S'amortis'
p3273
sS'cable'
p3274
S'c\xc3\xa2ble'
p3275
sS'Repartition'
p3276
S'Mouvement'
p3277
sS'scissions'
p3278
S'scission'
p3279
sS', r\xc3\xa9alisations'
p3280
S': r\xc3\xa9alisation'
p3281
sS'TOut'
p3282
S'Tous'
p3283
sS'pr\xc3\xa9-\xc3\xa9xistante'
p3284
S'pr\xc3\xa9-existante'
p3285
sS'grnier'
p3286
S'grenier'
p3287
sS'sopus'
p3288
S'sous'
p3289
sS'. ou'
p3290
S'o\xc3\xb9'
p3291
sS'5g/'
p3292
S'5 g/'
p3293
sS'Saint'
p3294
S'Bienheureux'
p3295
sS'horizonale'
p3296
S'horizontale'
p3297
sS'Selves'
p3298
S'Selve'
p3299
sS'194'
p3300
S'1947'
p3301
sS'necessitent'
p3302
S'n\xc3\xa9cessitent'
p3303
sS'Quatri\xc3\xa8me'
p3304
S'IVe'
p3305
sS': Dissimulation'
p3306
S'dissimulation'
p3307
sS'MINEFI'
p3308
S'MINEFE'
p3309
sS'358e'
p3310
S'358 e'
p3311
sS'. Hormi'
p3312
S', hormis'
p3313
sS'Catlagogne'
p3314
S'Catalogne'
p3315
sS'j\xc3\xa9r\xc3\xa9my'
p3316
S'Jeremy'
p3317
sS'dep\xc3\xb4t'
p3318
S'd\xc3\xa9p\xc3\xb4t'
p3319
sS'r\xc3\xa9anime'
p3320
S'r\xc3\xa9anim\xc3\xa8rent'
p3321
sS'piezzo-\xc3\xa9lectrique'
p3322
S'piezo-\xc3\xa9lectrique'
p3323
sS'fois\xc3\xa0'
p3324
S'occasions\xc3\xa0'
p3325
sS'Enigme'
p3326
S'\xc3\x89nigme'
p3327
sS'Loubyanka'
p3328
S'Loubianka'
p3329
sS'n\xc3\xa9goci\xc3\xa9'
p3330
S'n\xc3\xa9goci\xc3\xa9e'
p3331
sS'plusi'
p3332
S'plus'
p3333
sS'reve'
p3334
S'r\xc3\xaave'
p3335
sS'erronn\xc3\xa9e'
p3336
S'erron\xc3\xa9e'
p3337
sS'Homrero'
p3338
S'Homero'
p3339
sS'5000'
p3340
S'5 000'
p3341
sS'attractant'
p3342
S'attrait'
p3343
sS'JeanJacques'
p3344
S'Jean-Jacques'
p3345
sS'Chasn\xc3\xa9-sur-Illet'
p3346
S'Ch\xc3\xa2teaubourg'
p3347
sS'Cette'
p3348
S'Cet'
p3349
sS'innoncente'
p3350
S'innocente'
p3351
sS'9488'
p3352
S'9 488'
p3353
sS'16400'
p3354
S'16 400'
p3355
sS'900'
p3356
S'913'
p3357
sS'familliaux'
p3358
S'familiaux'
p3359
sS'420'
p3360
S'520'
p3361
sS'908'
p3362
S'407'
p3363
sS'1847'
p3364
S'1837'
p3365
sS'Gr\xc3\xaace'
p3366
S'Gr\xc3\xa8ce'
p3367
sS'rudby'
p3368
S'rugby'
p3369
sS'stelle'
p3370
S'st\xc3\xa8le'
p3371
sS'imp\xc3\xa9riale'
p3372
S'imp\xc3\xa9rial'
p3373
sS'lesminikeums'
p3374
S'les minikeums'
p3375
sS'Yusawaya'
p3376
S'Yuzawaya'
p3377
sS'litt\xc3\xa9ralment'
p3378
S'litt\xc3\xa9ralement'
p3379
sS'notablemment'
p3380
S'notablement'
p3381
sS'V\xc3\xa4yrnen'
p3382
S'V\xc3\xa4yrynen'
p3383
sS'Sheriff'
p3384
S'Sh\xc3\xa9rif'
p3385
sS'Novotroitsk'
p3386
S'Novotro\xc3\xaftsk'
p3387
sS'dessin\xc3\xa9es'
p3388
S'dessin\xc3\xa9e'
p3389
sS'Duchateau'
p3390
S'Duch\xc3\xa2teau'
p3391
sS'aufx'
p3392
S'aux'
p3393
sS'Jolene'
p3394
S'Elle'
p3395
sS'Juin'
p3396
S'Ao\xc3\xbbt'
p3397
sS'( 20h-22h30'
p3398
S'(20h-22h30'
p3399
sS'poss\xc3\xa9dair'
p3400
S'poss\xc3\xa9dait'
p3401
sS'Aux'
p3402
S'Au'
p3403
sS'famile'
p3404
S'famille'
p3405
sS"S'"
p3406
S"C'"
p3407
sS'surprenent'
p3408
S'surprennent'
p3409
sS'Parnassinae'
p3410
S'Parnassiinae'
p3411
sS'Corb'
p3412
S'Cord'
p3413
sS'majoritairement'
p3414
S'fortement'
p3415
sS'chevaux-l\xc3\xa9gers'
p3416
S'chevau-l\xc3\xa9gers'
p3417
sS'succ\xc3\xa9'
p3418
S'succes'
p3419
sS'tirangle'
p3420
S'triangle'
p3421
sS'industriellesitu\xc3\xa9'
p3422
S'industrielle situ\xc3\xa9'
p3423
sS'vaiat'
p3424
S'avait'
p3425
sS'6'
p3426
g169
sS'Tsietsi'
p3427
S'Mashinini'
p3428
sS'Dingaan'
p3429
S'Dingane'
p3430
sS'num\xc3\xa9rotations'
p3431
S'num\xc3\xa9rotation'
p3432
sS'icosa\xc3\xa8dre'
p3433
S'icosit\xc3\xa9tra\xc3\xa8dre'
p3434
sS'Rudolph'
p3435
S'Rudolf'
p3436
sS'r\xc3\xa9gimnt'
p3437
S'r\xc3\xa9giment'
p3438
sS'Sh\xc3\xa9pard'
p3439
S'Shepard'
p3440
sS'Joueuse'
p3441
S'Joueuses'
p3442
sS'endommage'
p3443
S'endommag\xc3\xa9'
p3444
sS'plusierus'
p3445
S'plusieurs'
p3446
sS'Lza'
p3447
S'La'
p3448
sS'hu\xc9\xa7\xc5\x93'
p3449
S'hu\xcb\x90\xc9\xa7\xc3\xb8'
p3450
sS'Nou'
p3451
S'Nous'
p3452
sS'\xe2\x80\x93 de'
p3453
S"d'"
p3454
sS'Sa'
p3455
S'La'
p3456
sS'Afrikanse'
p3457
S'Afrikaanse'
p3458
sS'Jullian'
p3459
S'Julian'
p3460
sS'Egypte'
p3461
S'\xc3\x89gypte'
p3462
sS'Neumann'
p3463
S'Neuman'
p3464
sS'490m2'
p3465
S'490m\xc2\xb2'
p3466
sS'leNord'
p3467
S'le Nord'
p3468
sS'des'
p3469
S'de ses'
p3470
sS'm\xc3\xa9gapole'
p3471
S'm\xc3\xa9galopole'
p3472
sS'ancienenemnt'
p3473
S'anciennement'
p3474
sS'tiznt'
p3475
S'tint'
p3476
sS'mod\xc3\xa8\xef\xbf\xbdles'
p3477
S'mod\xc3\xa8les'
p3478
sS'd\xc3\xa9mmare'
p3479
S'd\xc3\xa9marres'
p3480
sS'Originallement'
p3481
S'Originalement'
p3482
sS'n\xc3\xa9rlandaise'
p3483
S'n\xc3\xa9erlandaise'
p3484
sS'male'
p3485
S'm\xc3\xa2le'
p3486
sS'Delui'
p3487
S'Celui'
p3488
sS'dee'
p3489
S'de'
p3490
sS'Hitler'
p3491
S'nassim'
p3492
sS'decembre'
p3493
S'd\xc3\xa9cembre'
p3494
sS'1940s,'
p3495
S'1940 ,'
p3496
sS'Roissy-Charles-de-Gaulle'
p3497
S'Roissy-CDG'
p3498
sS'banlieus'
p3499
S'banlieue'
p3500
sS'Epim\xc3\xa9th\xc3\xa9e'
p3501
S'\xc3\x89pim\xc3\xa9th\xc3\xa9e'
p3502
sS'Legion'
p3503
S'L\xc3\xa9gion'
p3504
sS'Wien'
p3505
S'Vienne'
p3506
sS'succ\xc3\xa9s'
p3507
S'succ\xc3\xa8s'
p3508
sS'galleries'
p3509
S'galeries'
p3510
sS'boycott'
p3511
S'boycottage'
p3512
sS'837271'
p3513
S'543212'
p3514
sS'flatuler'
p3515
S'p\xc3\xa9ter'
p3516
sS'Immobilier'
p3517
S'Immobiliers'
p3518
sS'festivaux'
p3519
S'festivals'
p3520
sS'\xc3\xa9conomiqueS'
p3521
S'\xc3\xa9conomique'
p3522
sS'Ryansoroet'
p3523
S'Ryansoro et'
p3524
sS'pompe'
p3525
S'lunette'
p3526
sS'Kiebler'
p3527
S'Keibler'
p3528
sS'pilepoil'
p3529
S'pile poil'
p3530
sS'Reichsf\xc3\xbchrer'
p3531
S'F\xc3\xbchrer'
p3532
sS'Alo\xc3\xafs'
p3533
S'Alois'
p3534
sS'Infinity'
p3535
S'Infinitys'
p3536
sS'podicip\xc3\xa9did\xc3\xa9s'
p3537
S'podicip\xc3\xa9did\xc3\xa9'
p3538
sS'r\xc3\xa9v\xc3\xa9le'
p3539
S'r\xc3\xa9v\xc3\xa8le'
p3540
sS'5-la'
p3541
S'Descartes-la'
p3542
sS'Gondi'
p3543
S'Retz'
p3544
sS'accomoder'
p3545
S'accommoder'
p3546
sS'ft'
p3547
S'feat'
p3548
sS'Apvil'
p3549
S'Avril'
p3550
sS'Vel\xc3\xa1squez'
p3551
S'Vel\xc3\xa1zquez'
p3552
sS'\xc3\xa8re'
p3553
S'\xc3\xa9poque'
p3554
sS'apr\xc3\xa9s'
p3555
S'apr\xc3\xa8s'
p3556
sS'Maule-306'
p3557
S'Maule-310'
p3558
sS'horizontal'
p3559
S'vertical'
p3560
sS'mouru'
p3561
S'mourut'
p3562
sS'souvant'
p3563
S'souvent'
p3564
sS'1320-1375'
p3565
S'1320 -1375'
p3566
sS'ferror\xc3\xa9sonnace'
p3567
S'ferror\xc3\xa9sonance'
p3568
sS'ref>El'
p3569
S'El'
p3570
sS'dragon'
p3571
S'd\xc3\xa9mon'
p3572
sS'caus'
p3573
S'cause'
p3574
sS'Kanagawa'
p3575
S'Kawasaki'
p3576
sS'Shounan'
p3577
S'Shonan'
p3578
sS'P\xc3\xa8re-No\xc3\xaal'
p3579
S'P\xc3\xa8re-No\xc3\xabl'
p3580
sS'copmposition'
p3581
S'composition'
p3582
sS'Fa\xc3\xaetes'
p3583
S'Faites'
p3584
sS'rationelle'
p3585
S'rationnelle'
p3586
sS'extr\xc3\xa8mement'
p3587
S'extr\xc3\xaamement'
p3588
sS'Lef\xc3\xa9vre'
p3589
S'Lef\xc3\xa8vre'
p3590
sS'\xc3\x89d .'
p3591
S'\xc3\x89ditions'
p3592
sS'gaulois'
p3593
S'n\xc3\xa9erlandais'
p3594
sS'exig\xc3\xbces'
p3595
S'exigu\xc3\xabs'
p3596
sS'p\xc3\xa9trole'
p3597
S'carburant'
p3598
sS'parqe'
p3599
S'parce'
p3600
sS'Plusieurs'
p3601
S'* plusieurs'
p3602
sS'minmax'
p3603
S'minimax'
p3604
sS'6\xc3\xa8me'
p3605
S'6 \xc3\xa8me'
p3606
sS'durable-mie'
p3607
S'durable-mise'
p3608
sS'connait'
p3609
S'conna\xc3\xaet'
p3610
sS'24'
p3611
S'23'
p3612
sS'Chalout'
p3613
S'Chaloult'
p3614
sS'utilsant'
p3615
S'utilisant'
p3616
sS'27'
p3617
S'23'
p3618
sS'20'
p3619
S'1920'
p3620
sS'dissous'
p3621
S'dissout'
p3622
sS'22'
p3623
S'21'
p3624
sS'Londo'
p3625
S'London'
p3626
sS'Rancurel'
p3627
S'Rencurel'
p3628
sS'essenciellement'
p3629
S'essentiellement'
p3630
sS'28'
p3631
S'16'
p3632
sS'id\xc3\xb4les'
p3633
S'idoles'
p3634
sS'III\xc3\xa8me'
p3635
S'III-\xc3\xa8me'
p3636
sS'Adriaenszoon'
p3637
S'Adriaanszoon'
p3638
sS'duch\xc3\xa9'
p3639
S'prince'
p3640
sS'; ces'
p3641
S'. Ces'
p3642
sS'Muzillac'
p3643
S'Muzillac100px'
p3644
sS'Apr\xc3\xa8s'
p3645
S'\xc3\x80'
p3646
sS'pouetEntre'
p3647
S'Entre'
p3648
sS'd\xc3\xa9pression'
p3649
S'temp\xc3\xaates'
p3650
sS'clusiac\xc3\xa9\xc3\xa9'
p3651
S'clusiac\xc3\xa9e'
p3652
sS'Porcie'
p3653
S'Porcia'
p3654
sS'males'
p3655
S'm\xc3\xa2les'
p3656
sS'31mars'
p3657
S'31 mars'
p3658
sS'Doizy'
p3659
S'* DOIZY'
p3660
sS'commit\xc3\xa9'
p3661
S'comit\xc3\xa9'
p3662
sS'Valdinievole1637-'
p3663
S'Valdinievole 1637-'
p3664
sS'popste'
p3665
S'poste'
p3666
sS'prox\xc3\xa8nete'
p3667
S'prox\xc3\xa9n\xc3\xa8te'
p3668
sS'd\xc3\xa9cror\xc3\xa9'
p3669
S'd\xc3\xa9cor\xc3\xa9'
p3670
sS'executores'
p3671
S'" hommes'
p3672
sS'Rav'
p3673
S'rabbin'
p3674
sS'rou\xc3\xb9aine'
p3675
S'roumaine'
p3676
sS'd\xc3\xa9clancher'
p3677
S'd\xc3\xa9clencher'
p3678
sS'\xc3\xa9galment'
p3679
S'\xc3\xa9galement'
p3680
sS'Eglises'
p3681
S'\xc3\x89glises'
p3682
sS'commique'
p3683
S'comique'
p3684
sS'Athur'
p3685
S'Arthur'
p3686
sS'Azazga'
p3687
S'Ia\xc3\xa2zoguen'
p3688
sS'avneture'
p3689
S'aventure'
p3690
sS'bepuis'
p3691
S'depuis'
p3692
sS'Tokyo-Yokohama'
p3693
S'T\xc5\x8dky\xc5\x8d-Yokohama'
p3694
sS'accueulli'
p3695
S'acueulli'
p3696
sS'enAustralie'
p3697
S'en Australie'
p3698
sS'Saint-Gervais-les-Bains'
p3699
S'Chamonix'
p3700
sS'estune'
p3701
S'est une'
p3702
sS'lareligion'
p3703
S'la religion'
p3704
sS'Beatrice'
p3705
S'B\xc3\xa9atrice'
p3706
sS'Sainte'
p3707
S'Bienheureuse'
p3708
sS'IIIe'
p3709
S'III e'
p3710
sS'Boulenger'
p3711
S'Boulanger'
p3712
sS'Noigaillach'
p3713
S'Noigiallach'
p3714
sS'E,'
p3715
S'En'
p3716
sS'quelque'
p3717
S'quel que'
p3718
sS'August'
p3719
S'Auguste'
p3720
sS'ennesmis'
p3721
S'ennemis'
p3722
sS'orgines'
p3723
S'origines'
p3724
sS'( peut-\xc3\xaatre ?)'
p3725
S'\xc3\xa9galement'
p3726
sS'\xc3\xa9aglement'
p3727
S'\xc3\xa9galement'
p3728
sS'sugg\xc3\xa9rerait'
p3729
S'sugg\xc3\xa8rerait'
p3730
sS'V\xc3\xa9n\xc3\xa9zu\xc3\xa9la'
p3731
S'Venezuela'
p3732
sS'banlieu'
p3733
S'banlieue'
p3734
sg169
g928
sS'harcela'
p3735
S'harcele'
p3736
sS'Chagri'
p3737
S'chagrin'
p3738
sS'valeure'
p3739
S'valeur'
p3740
sS'r\xc3\xa9citoral'
p3741
S'r\xc3\xa9cit oral'
p3742
sS'diponibles'
p3743
S'disponibles'
p3744
sS'1-2'
p3745
S'1-0'
p3746
sS'pui'
p3747
S'puis'
p3748
sS'Hans-Martin'
p3749
S'Hanns-Martin'
p3750
sS'serrais'
p3751
S'serait'
p3752
sS'muscale'
p3753
S'musicale'
p3754
sS'sismologue'
p3755
S'sismologues'
p3756
sS'montagnard'
p3757
S', Montagnard'
p3758
sS'\xe7\x9f\xb3\xe5\x8e\x9f\xe6\x85\x8e\xe5\xa4\xaa\xe9\x83\x8e'
p3759
S'\xe7\x9f\xb3\xe5\x8e\x9f \xe6\x85\x8e\xe5\xa4\xaa\xe9\x83\x8e'
p3760
sS'Une'
p3761
S'La'
p3762
sS'Lucile'
p3763
S'Lucille'
p3764
sS'EP'
p3765
S'single'
p3766
sS'charbonneuses'
p3767
S'charbonneuse'
p3768
sS'lach\xc3\xa9s'
p3769
S'lach\xc3\xa9'
p3770
sS'En'
p3771
S'El'
p3772
sS'Halliday'
p3773
S'Hallyday'
p3774
sS'titreIBF'
p3775
S'titre IBF'
p3776
sS'affrontement'
p3777
S'affrontent'
p3778
sS'ensiegn\xc3\xa9'
p3779
S'enseign\xc3\xa9'
p3780
sS'Caedwalla'
p3781
S'C\xc3\xa6dwalla'
p3782
sS'armements'
p3783
S'armement ;'
p3784
sS'contruisent'
p3785
S'construisent'
p3786
sS'photographeGeorges'
p3787
S'photojournalisteGeorges'
p3788
sS'R\xc3\xa4ikk\xc3\xb6nen'
p3789
S'R\xc3\xa4ikk\xc3\xb6nenR\xc3\xa4ikk\xc3\xb6nen'
p3790
sS'sois-disant'
p3791
S'soi-disant'
p3792
sS'Et'
p3793
S'Enfin'
p3794
sS'quatres'
p3795
S'quatre'
p3796
sS'Eau-profonde'
p3797
S'Eauprofonde'
p3798
sS'Pieron'
p3799
S'Pi\xc3\xa9ron'
p3800
sS'Abott'
p3801
S'Abbott'
p3802
sS'signle'
p3803
S'signe'
p3804
sS'Syndrome'
p3805
S'Syndr\xc3\xb4me'
p3806
sS'Roshdy'
p3807
S'Roschdy'
p3808
sS'donv'
p3809
S'donc'
p3810
sS'rebaptis\xc3\xa9\xc3\xa9e'
p3811
S'rebaptis\xc3\xa9e'
p3812
sS'Theodemir'
p3813
S'Th\xc3\xa9odemir'
p3814
sS'Sanccerre'
p3815
S'Sancerre'
p3816
sS'done'
p3817
S'donne'
p3818
sS'assaillant'
p3819
S'assaillants'
p3820
sS'recencer'
p3821
S'recenser'
p3822
sS'Reanult'
p3823
S'Renault'
p3824
sS'translationnele'
p3825
S'translationnelle'
p3826
sS'enqu\xc3\xa8tes'
p3827
S'enqu\xc3\xaates'
p3828
sS'Vienna'
p3829
S'Vienne'
p3830
sS'Vernonde'
p3831
S'Vernon de'
p3832
sS'Villemeneux-FR091848'
p3833
S'Brie-Comte-Robert-FR010594'
p3834
sS'Parn\xc3\xa9'
p3835
S'Parn\xc3\xa9-sur-Roc'
p3836
sS'guest'
p3837
S'guests'
p3838
sS'germanisme'
p3839
S'pangermanisme'
p3840
sS'revinent'
p3841
S'revint'
p3842
sS'interviews'
p3843
S'interview'
p3844
sS'enre'
p3845
S'entre'
p3846
sS'Geison'
p3847
S'Gerald'
p3848
sS'German-Suplex'
p3849
S'German-Souplex'
p3850
sS'180'
p3851
S'181'
p3852
sS'auparavent'
p3853
S'auparavant'
p3854
sS'descrition'
p3855
S'description'
p3856
sS'187'
p3857
S'189'
p3858
sS'Jehanne'
p3859
S'Jeanne'
p3860
sS'r\xc3\xa9guli\xc3\xa9rement'
p3861
S'r\xc3\xa9guli\xc3\xa8rement'
p3862
sS'cyrilique'
p3863
S'cyrillique'
p3864
sS'hotel'
p3865
S'h\xc3\xb4tel'
p3866
sS'1919'
p3867
S'1920'
p3868
sS'dfe'
p3869
S'de'
p3870
sS'Gland\xc3\xa8ve'
p3871
S'Gland\xc3\xa8ves'
p3872
sS'envoit'
p3873
S'envoie'
p3874
sS'ergomotricit'
p3875
S'ergomotricit\xc3\xa9'
p3876
sS'1912'
p3877
S'1913'
p3878
sS'malgr\xc3\xa9s'
p3879
S'malgr\xc3\xa9'
p3880
sS'grace'
p3881
S'gr\xc3\xa2ce'
p3882
sS'nommm\xc3\xa9'
p3883
S'nomm\xc3\xa9'
p3884
sS'T\xc3\xa9l\xc3\xa9vision'
p3885
S'T\xc3\xa9l\xc3\xa9'
p3886
sS'actifsacquis'
p3887
S'actifs acquis'
p3888
sS'Internationaux'
p3889
S'tournois'
p3890
sS'haid\xc9\x99r'
p3891
S'hajd\xc9\x99r'
p3892
sS'Cinqueti'
p3893
S'Cinquetti'
p3894
sS'revendiquanrt'
p3895
S'revendiquant'
p3896
sS'Kenzo'
p3897
S'Kenz\xc5\x8d'
p3898
sS'r\xc3\xa9acteirs'
p3899
S'r\xc3\xa9acteurs'
p3900
sS'appuye'
p3901
S'appuie'
p3902
sS'occiten'
p3903
S'occitan'
p3904
sS'Rapelons'
p3905
S'Rapellons'
p3906
sS'desservi'
p3907
S'desservie'
p3908
sS'r\xc3\xa9pend'
p3909
S'r\xc3\xa9pand'
p3910
sS'Neurscience'
p3911
S'Neuroscience'
p3912
sS'\xc3\xa9limina'
p3913
S'a \xc3\xa9limin\xc3\xa9'
p3914
sS'Revelation'
p3915
S'R\xc3\xa9v\xc3\xa9lation'
p3916
sS'd\xc3\xa9nomm\xc3\xa9'
p3917
S'd\xc3\xa9nomm\xc3\xa9e'
p3918
sS'indipensable'
p3919
S'indispensable'
p3920
sS'd\xc3\xa9c\xc3\xa9d\xc3\xa8'
p3921
S'd\xc3\xa9c\xc3\xa9d\xc3\xa9'
p3922
sS'Embarass\xc3\xa9'
p3923
S'Embarrass\xc3\xa9'
p3924
sS'Ecritures'
p3925
S'\xc3\x89critures'
p3926
sS'sid\xc3\xa9rugie'
p3927
S'sid\xc3\xa9rurgie'
p3928
sS'XVIII\xc3\xa8me'
p3929
S'XVIIIe'
p3930
sS'Issoudin'
p3931
S'Issoudun'
p3932
sS'pr\xc3\xa9c\xc3\xa9dants'
p3933
S'pr\xc3\xa9c\xc3\xa9dents'
p3934
sS'Kiy'
p3935
S'Kiji'
p3936
sS'apostoliquee'
p3937
S'apostolique'
p3938
sS'neveau'
p3939
S'neveu'
p3940
sS', il'
p3941
S'. Il'
p3942
sS'Paris :'
p3943
S'\xc3\xa9d .'
p3944
sS'astronomie'
p3945
S'astronome'
p3946
sS'aquariophile'
p3947
S'aquariophiles'
p3948
sS'achitecte'
p3949
S'architecte'
p3950
sS'Soeurs'
p3951
S'S\xc5\x93urs'
p3952
sS'remmets'
p3953
S'remets'
p3954
sS'gacne'
p3955
S'gagne'
p3956
sS'Horvath'
p3957
S'Horv\xc3\xa1th'
p3958
sS'17e'
p3959
S'18e'
p3960
sS'BrionneRichard'
p3961
S'BienfaiteRichard'
p3962
sS'ffinanci\xc3\xa8re'
p3963
S'financi\xc3\xa8re'
p3964
sS'aout'
p3965
S'ao\xc3\xbbt'
p3966
sS'exeptionelle'
p3967
S'exceptionnelle'
p3968
sS'Rudolphe'
p3969
S'Rudolph'
p3970
sS'flute'
p3971
S'fl\xc3\xbbte'
p3972
sS'lequels'
p3973
S'lesquels'
p3974
sS'paticipent'
p3975
S'participent'
p3976
sS'75'
p3977
S'38'
p3978
sS'b\xc3\xaatise'
p3979
S'b\xc3\xaatises'
p3980
sS'Conaught'
p3981
S'Connaught'
p3982
sS'70'
p3983
S'1970'
p3984
sS'The'
p3985
S'Le'
p3986
sS'est-sud-est'
p3987
S'ouest-sud-ouest'
p3988
sS'Tha'
p3989
S'Da'
p3990
sS'socio-\xc3\xa9ducatifs'
p3991
S'socio\xc3\xa9ducatifs'
p3992
sS'seize'
p3993
S'soixante'
p3994
sS'XVIIIe'
p3995
S'XVIII e'
p3996
sS'enclins'
p3997
S'enclines'
p3998
sS'plannifi\xc3\xa9e'
p3999
S'planifi\xc3\xa9e'
p4000
sS'\xc3\x82nkhesenp\xc3\xa9pi'
p4001
S'\xc3\x82nkh\xc3\xa9senp\xc3\xa9pi'
p4002
sS'gr\xc3\xa2cier'
p4003
S'gracier'
p4004
sS'Podicipedidae'
p4005
S'podicip\xc3\xa9did\xc3\xa9s'
p4006
sS'Chevrolets'
p4007
S'Chevrolet'
p4008
sS'apres'
p4009
S'apr\xc3\xa8s'
p4010
sS'Karma-Ling'
p4011
S'Karmaling'
p4012
sS'\xc3\xa9meteur'
p4013
S'\xc3\xa9metteur'
p4014
sS'renforca'
p4015
S'renfor\xc3\xa7a'
p4016
sS'soixantes'
p4017
S'soixante'
p4018
sS'certe'
p4019
S'certes'
p4020
sS'r\xc3\xa9pendit'
p4021
S'r\xc3\xa9pandit'
p4022
sS'succ\xc3\xa9ssives'
p4023
S'successives'
p4024
sS'courronne'
p4025
S'couronne'
p4026
sS'/ 5 /'
p4027
S'mai'
p4028
sS'pultiplication'
p4029
S'multiplication'
p4030
sS'Deleuze'
p4031
S'lui'
p4032
sS'Autralie'
p4033
S'Australie'
p4034
sS'Grand-croix'
p4035
S'Grande-croix'
p4036
sS'Lesfleurs'
p4037
S'Les fleurs'
p4038
sS'B\xc3\xa9n\xc3\xa9lux'
p4039
S'Benelux'
p4040
sS'necessaire'
p4041
S'n\xc3\xa9cessaire'
p4042
sS'1913'
p4043
S'1912'
p4044
sS'retrouv'
p4045
S'retrouve'
p4046
sS'M\xc3\xa9dine'
p4047
S'Madine'
p4048
sS'th\xc3\xa9\xc3\xa2tr'
p4049
S'th\xc3\xa9\xc3\xa2tre'
p4050
sS'sontles'
p4051
S'sont les'
p4052
sS'Theodore'
p4053
S'Th\xc3\xa9odore'
p4054
sS'diersifi\xc3\xa9'
p4055
S'diversifi\xc3\xa9'
p4056
sS'paranoia'
p4057
S'parano\xc3\xafa'
p4058
sS'croasse'
p4059
S'coasse'
p4060
sS'lap\xc3\xa9ripat\xc3\xa9ticienne'
p4061
S'la p\xc3\xa9ripat\xc3\xa9ticienne'
p4062
sS'qu\xc3\xa9tes'
p4063
S'qu\xc3\xaates'
p4064
sS'anglo-hollandaise'
p4065
S'anglo-autrichienne'
p4066
sS'Peschadoire'
p4067
S'Peschadoires'
p4068
sS'\xc3\xa9xistait'
p4069
S'existait'
p4070
sg937
g3426
sS'Piqu\xc3\xa9'
p4071
S'Picqu\xc3\xa9'
p4072
sS'p\xc3\xa9tr\xc3\xb4le'
p4073
S'p\xc3\xa9trole'
p4074
sS'Sh\xc3\xb4nen'
p4075
S'sh\xc5\x8dnen'
p4076
sS'\xc3\xa9nigmes'
p4077
S'\xc3\xa9nigme'
p4078
sS'pop-rock'
p4079
S'Emo'
p4080
sS'quizzes'
p4081
S'quizz'
p4082
sS'inexsitantes'
p4083
S'inexistantes'
p4084
sS'Botro'
p4085
S'Botroo'
p4086
sS'Madme'
p4087
S'Madame'
p4088
sS'Tonin\xc3\xa0'
p4089
S'Tonin\xc3\xa1'
p4090
sS'\xc2\xab \xe2\x80\xa6, laquelle ('
p4091
S'citation2|laquelle'
p4092
sS'Massassuchets'
p4093
S'Massachusets'
p4094
sS'soigante'
p4095
S'soignante'
p4096
sS'Auteurs'
p4097
S'Auteur'
p4098
sS'cepandant'
p4099
S'cependant'
p4100
sS'plsu'
p4101
S'plus'
p4102
sS'su\xc3\xa9dois'
p4103
S'su\xc3\xa8dois'
p4104
sS'18e'
p4105
S'25e'
p4106
sS'Natafsans'
p4107
S'Nataf sans'
p4108
sS'vingt'
p4109
S'trois'
p4110
sS'J,'
p4111
S'J),'
p4112
sS'momument'
p4113
S'monument'
p4114
sS'6i\xc3\xa8me'
p4115
S'6\xc3\xa8me'
p4116
sS'lacher'
p4117
S'l\xc3\xa2cher'
p4118
sS'Rafaellino'
p4119
S'Raffaellino'
p4120
sS'toujour'
p4121
S'toujours'
p4122
sS'proc\xc3\xa9ssius'
p4123
S'proc\xc3\xa9ssus'
p4124
sS'Panathinaikos'
p4125
S'Panathina\xc3\xafkos'
p4126
sS'liber\xc3\xa9\xc3\xa9'
p4127
S'lib\xc3\xa9r\xc3\xa9e'
p4128
sS'hodling'
p4129
S'holding'
p4130
sS't\xc3\xa9moinge'
p4131
S't\xc3\xa9moigne'
p4132
sS'initiier'
p4133
S'initier'
p4134
sS'pr\xc3\xa9cisemment'
p4135
S'pr\xc3\xa9cis\xc3\xa9ment'
p4136
sS'sex'
p4137
S'sexe'
p4138
sS'Selectionner'
p4139
S'S\xc3\xa9lectionner'
p4140
sS'h\xc3\xa2ch\xc3\xa9s'
p4141
S'hach\xc3\xa9s'
p4142
sS'Stroumpfs'
p4143
S'Schtroumpfs'
p4144
sS'Bideault'
p4145
S'Bibeault'
p4146
sS'cr\xc3\xa9dion'
p4147
S'cr\xc3\xa9adion'
p4148
sS'L'
p4149
S"L'"
p4150
sS'effficacit\xc3\xa9'
p4151
S'efficacit\xc3\xa9'
p4152
sS'troubloule'
p4153
S'trouble'
p4154
sS'tranformer'
p4155
S'transformer'
p4156
sS'pl\xc3\xbbtot'
p4157
S'plut\xc3\xb4t'
p4158
sS'Meaulnes'
p4159
S'Maulnes'
p4160
sS'Overijssel'
p4161
S'Over\xc4\xb3ssel'
p4162
sS'subalternes'
p4163
S'blaasubalternes'
p4164
sS'iRoland'
p4165
S'Roland'
p4166
sS'si\xc3\xa9cles'
p4167
S'si\xc3\xa8cles'
p4168
sS"familled '"
p4169
S"famille d'"
p4170
sS'Irrawady'
p4171
S'Irrawaddy'
p4172
sS'professionel'
p4173
S'professionnel'
p4174
sS'90km'
p4175
S'90 km'
p4176
sS'hydro-r\xc3\xa9sistant'
p4177
S'hydror\xc3\xa9sistant'
p4178
sS'professionelle'
p4179
S'professionnelle'
p4180
sS'uui'
p4181
S'qui'
p4182
sS'r\xc3\xa9am\xc3\xa9nag\xc3\xa9'
p4183
S'r\xc3\xa9am\xc3\xa9nag\xc3\xa9e ,'
p4184
sS'seulemnt'
p4185
S'seulement'
p4186
sS'r\xc3\xa9elemement'
p4187
S'r\xc3\xa9ellement'
p4188
sS'Yen'
p4189
S'yens'
p4190
sS'18h30'
p4191
S'6h30'
p4192
sS'proc\xc3\xa9ssus'
p4193
S'processus'
p4194
sS'connection'
p4195
S'connexion'
p4196
sS'\xc3\x89gypteSource :'
p4197
S'\xc3\x89gypte'
p4198
sS'Apr\xc3\xa9s'
p4199
S'Apr\xc3\xa8s'
p4200
sS'baseball'
p4201
S'basket-ball'
p4202
sS'Innsbruck'
p4203
S'Tirol'
p4204
sS'arrondisssement'
p4205
S'arrondisssements'
p4206
sS'ci-dessus'
p4207
S'ci-contre'
p4208
sS'\xe7\x9f\xb3\xe5\x8e\x9f'
p4209
S'\xe7\x9f\xb3\xe5\x8e\x9f\xe6\x96\xb0\xe5\xa4\xaa\xe9\x83\x8e'
p4210
sS'disparait'
p4211
S'dispara\xc3\xaet'
p4212
sS'evidament'
p4213
S'\xc3\xa9vidament'
p4214
sS'etre'
p4215
S'\xc3\xaatre'
p4216
sS'Rayquaza'
p4217
S'Ho-Oh'
p4218
sS'Tea-Room'
p4219
S'Tearoom'
p4220
sS'Pettrasi'
p4221
S'Petrassi'
p4222
sS'coincidence'
p4223
S'co\xc3\xafncidence'
p4224
sS'repidement'
p4225
S'rapidement'
p4226
sS'\xc3\xaeiles'
p4227
S'\xc3\xaeles'
p4228
sS'longeur'
p4229
S'longueur'
p4230
sS'm\xc3\xa9t\xc3\xa9riels'
p4231
S'mat\xc3\xa9riels'
p4232
sS'2569'
p4233
S'2 569'
p4234
sS'Marne-la-Coquette'
p4235
S'Marnes-la-Coquette'
p4236
sS'pp'
p4237
S'pages'
p4238
sS': observe'
p4239
S'voit'
p4240
sS'dul'
p4241
S'duel'
p4242
sS'ragent'
p4243
S'argent'
p4244
sS'2561'
p4245
S'2562'
p4246
sS'Parhun'
p4247
S'Parun'
p4248
sS'Robet'
p4249
S'Robert'
p4250
sS'pa'
p4251
S'pas'
p4252
sS'Montalbanno'
p4253
S'Montalbano'
p4254
sS'Royale'
p4255
S'Royal'
p4256
sS'Gilled'
p4257
S'Gilles'
p4258
sS'sous-syt\xc3\xa8mes'
p4259
S'sous-syst\xc3\xa8mes'
p4260
sS'transcendanct'
p4261
S'transcendant'
p4262
sS'Mekilta'
p4263
S'Mekhilta'
p4264
sS'1950s'
p4265
S'1950'
p4266
sS'd\xc3\xa9cenvate'
p4267
S'd\xc3\xa9cevante'
p4268
sS'Eglise'
p4269
S'\xc3\x89glise'
p4270
sS'diplomes'
p4271
S'dipl\xc3\xb4mes'
p4272
sS'volontier'
p4273
S'volontiers'
p4274
sS'Emo'
p4275
S'pop-rock'
p4276
sS'belle-m\xc3\xa8re'
p4277
S'belle-fille'
p4278
sS'( le'
p4279
S'. Le'
p4280
sS'paerticules'
p4281
S'particules'
p4282
sS'NSDAPun'
p4283
S'NSDAP un'
p4284
sS'Beathing'
p4285
S'Breathing'
p4286
sS'Astero\xc3\xafde'
p4287
S'Ast\xc3\xa9ro\xc3\xafde'
p4288
sS'r\xc3\xa9gionnales'
p4289
S'r\xc3\xa9gionales'
p4290
sS'Vickers-Armstrong'
p4291
S'Vickers-Armstrongs'
p4292
sS'rassurer'
p4293
S'rassur\xc3\xa9'
p4294
sS'unartiste'
p4295
S'un artiste'
p4296
sS'XIIIe'
p4297
S'XIII e'
p4298
sS'p;'
p4299
g1672
sS'existance'
p4300
S'existence'
p4301
sS'Messiean'
p4302
S'Messiaen'
p4303
sS'Kobe'
p4304
S'K\xc5\x8dbe'
p4305
sS'quetsion'
p4306
S'question'
p4307
sS'008000'
p4308
S'009900'
p4309
sS'FRESAF'
p4310
S'FRESCAF'
p4311
sS'unmalacologiste'
p4312
S'un malacologiste'
p4313
sS'Parfois'
p4314
S'* parfois'
p4315
sS'A .'
p4316
S'Andreas'
p4317
sS'deB\xc3\xa2ton'
p4318
S'de B\xc3\xa2ton'
p4319
sS'parc ,'
p4320
S'Il'
p4321
sS'b\xc3\xa2teau'
p4322
S'bateau'
p4323
sS'n\xc3\xa9erlandais'
p4324
S'gaulois'
p4325
sS'n\xc3\xa9riti\xc3\xa8re'
p4326
S'h\xc3\xa9riti\xc3\xa8re'
p4327
sS'Vyautas'
p4328
S'Vytautas'
p4329
sS'concpet'
p4330
S'concept'
p4331
sS'grans'
p4332
S'grand'
p4333
sS'puit'
p4334
S'puits'
p4335
sS'd\xc3\xa9gats'
p4336
S'd\xc3\xa9g\xc3\xa2ts'
p4337
sS'encercl\xc3\xa9s'
p4338
S'encercl\xc3\xa9es'
p4339
sS'Etrusques'
p4340
S'\xc3\x89trusques'
p4341
sS'\xc3\xa9v\xc3\xa8qe'
p4342
S'\xc3\xa9v\xc3\xa8que'
p4343
sS'atttention'
p4344
S'attention'
p4345
sg2266
S'IX'
p4346
sS'Nommination'
p4347
S'Nomination'
p4348
sS'FAA'
p4349
S'FAL'
p4350
sS'neutron'
p4351
S'neutrino'
p4352
sS'Shabbat'
p4353
S'Chabbat'
p4354
sS'Meilleraye'
p4355
S'Meilleraie'
p4356
sS'd\xc3\xa9ja'
p4357
S'd\xc3\xa9j\xc3\xa0'
p4358
sS'California'
p4359
S'Californie'
p4360
sS'T\xc5\x8dkfffffddy\xc5\x8d'
p4361
S'T\xc5\x8dky\xc5\x8d'
p4362
sS'002'
p4363
S'Sport'
p4364
sS'barraques'
p4365
S'baraques'
p4366
sS'Ils'
p4367
g2761
sS'orient\xc3\xa9'
p4368
S'orient\xc3\xa9e'
p4369
sS'indispenable'
p4370
S'indispensable'
p4371
sS'Oglou'
p4372
S'Ogou'
p4373
sS'Kasianov-'
p4374
S'Kassianov-'
p4375
sS'courrir'
p4376
S'courir'
p4377
sS'contrevers\xc3\xa9'
p4378
S'controvers\xc3\xa9'
p4379
sS'Entraineur'
p4380
S'Entra\xc3\xaeneur'
p4381
sS'Son'
p4382
S"L'"
p4383
sS'Congo'
p4384
S'Congo-Kinshasa'
p4385
sS'Economie'
p4386
S'\xc3\x89conomie'
p4387
sS'Kyoto'
p4388
S'Ky\xc5\x8dto'
p4389
sS'organization'
p4390
S'organisation'
p4391
sS'\xc3\xaele-du-Prince-Edouard'
p4392
S'\xc3\x8ele-du-Prince-\xc3\x89douard'
p4393
sS'psychad\xc3\xa9liques'
p4394
S'psych\xc3\xa9d\xc3\xa9liques'
p4395
sS'minueure'
p4396
S'mineure'
p4397
sS'commuanutaires'
p4398
S'communautaires'
p4399
sS'combianaison'
p4400
S'combinaison'
p4401
sS"O'"
p4402
S'U\xc3\xad'
p4403
sS'apparamment'
p4404
S'apparemment'
p4405
sS'Su\xc3\xa8dois'
p4406
S'su\xc3\xa9dois'
p4407
sS'B\xc3\xa9reng\xc3\xa8r'
p4408
S'B\xc3\xa9reng\xc3\xa8re .'
p4409
sS'Bremen'
p4410
S'Br\xc3\xaame'
p4411
sS'permat'
p4412
S'permet'
p4413
sS'Selun\xc3\xa9'
p4414
S'S\xc3\xa9lun\xc3\xa9'
p4415
sS'Bourbon'
p4416
S'Bourbon-Vend\xc3\xb4me'
p4417
sS'Tr\xc3\xa9fou'
p4418
S'TREFOU'
p4419
sS'laCorse'
p4420
S'la Corse'
p4421
sS'supprimd'
p4422
S'supprime'
p4423
sS'Triomphe'
p4424
S'Triumph'
p4425
sS'#3\xc3\xa8me'
p4426
S'- 3\xc3\xa8me'
p4427
sS'poss\xc3\xa8dait'
p4428
S'poss\xc3\xa9dait'
p4429
sS'D\xc3\xb6nitz'
p4430
S'Donitz'
p4431
sS'at\xc3\xa9nuation'
p4432
S'att\xc3\xa9nuation'
p4433
sS'1933-34'
p4434
S'1933-1934'
p4435
sS'rancoeur'
p4436
S'ranc\xc5\x93ur'
p4437
sS'c .'
p4438
S'code'
p4439
sS'Golfe'
p4440
S'Gulf'
p4441
sS'H\xc3\xa9r\xc3\xa9dia'
p4442
S'Heredia'
p4443
sS'preter'
p4444
S'pr\xc3\xaater'
p4445
sS'Lucchini\xc3\xa9crivain'
p4446
S'Lucchini \xc3\xa9crivain'
p4447
sS'jouvance'
p4448
S'jouvence'
p4449
sS'L .'
p4450
S'Luigi'
p4451
sS'foetale'
p4452
S'f\xc5\x93tale'
p4453
sS'directionelle'
p4454
S'directionnelle'
p4455
sS'Euskara'
p4456
S'Pays'
p4457
sS'Scalietti'
p4458
S'Scaglietti'
p4459
sS'Columban'
p4460
S'Colomban'
p4461
sS'glaroises'
p4462
S'glaronaises'
p4463
sS'Bourresches'
p4464
S'Bouresches'
p4465
sS'fra\xc3\xa7ais'
p4466
S'fran\xc3\xa7ais'
p4467
sS'Yemen'
p4468
S'Y\xc3\xa9men'
p4469
sS'Brothers "'
p4470
S'Brother'
p4471
sS'Jehovah'
p4472
S'J\xc3\xa9hovah'
p4473
sS'hollandaise'
p4474
S'n\xc3\xa9erlandaise'
p4475
sS'LouisXV'
p4476
S'Louis XV'
p4477
sS'FA'
p4478
S'FAL'
p4479
sS'Francs-Ma\xc3\xa7ons'
p4480
S'Franc-Ma\xc3\xa7ons'
p4481
sS'anglais )'
p4482
S'fran\xc3\xa7ais !)'
p4483
sS'\xc3\xa9t\xc3\xa9restaur\xc3\xa9s'
p4484
S'\xc3\xa9t\xc3\xa9 restaur\xc3\xa9s'
p4485
sS'instore'
p4486
S'instaure'
p4487
sS'Entreprise'
p4488
S'Enterprise'
p4489
sS'Jehovas'
p4490
S'J\xc3\xa9hovah'
p4491
sS'photographieGeorges'
p4492
S'photographeGeorges'
p4493
sS'Ligue'
p4494
S'Division'
p4495
sS'Mediavision'
p4496
S'M\xc3\xa9diavision'
p4497
sS'angais'
p4498
S'anglais'
p4499
sS'1914'
p4500
S'1913'
p4501
sS'l\xc3\xa8gu\xc3\xa9'
p4502
S'l\xc3\xa9gu\xc3\xa9'
p4503
sS'Ecosse'
p4504
S'\xc3\x89cosse'
p4505
sS'Viginie-Occidentale'
p4506
S'Virginie-Occidentale'
p4507
sS'emprt\xc3\xa9'
p4508
S'emport\xc3\xa9'
p4509
sS'emps'
p4510
S'temps'
p4511
sS'pr\xc3\xa9viend'
p4512
S'pr\xc3\xa9vient'
p4513
sS'Koriakski'
p4514
S'Koryaksky'
p4515
sS'r\xc3\xa9soud'
p4516
S'r\xc3\xa9sout'
p4517
sS'euxune'
p4518
S'eux une'
p4519
sS'gerant'
p4520
S'g\xc3\xa9rant'
p4521
sS'Frane'
p4522
S'France'
p4523
sS'minimax'
p4524
S'minmax'
p4525
sS'pronciation'
p4526
S'prononciation'
p4527
sS'1525'
p4528
S'1522'
p4529
sS', apr\xc3\xa8s'
p4530
S'. Apr\xc3\xa8s'
p4531
sS'1522'
p4532
S'1525'
p4533
sS'pushers'
p4534
S'revendeurs'
p4535
sS'Anellipour'
p4536
S'Anelli pour'
p4537
sS'IVe'
p4538
S'IV e'
p4539
sS'Bermudes'
p4540
S'Bahamas'
p4541
sS'Quelque'
p4542
S'Quelle que'
p4543
sS'300'
p4544
S'306'
p4545
sS'O'
p4546
S'ONGD'
p4547
sS'fome'
p4548
S'forme'
p4549
sS'XII\xc3\xa8me'
p4550
S'XIIe'
p4551
sS'Cap-verdien'
p4552
S'capverdien'
p4553
sS'Bonhommeest'
p4554
S'Bonhomme est'
p4555
sS'verifications'
p4556
S'v\xc3\xa9rifications'
p4557
sS'personelle'
p4558
S'personnelle'
p4559
sS'Bob'
p4560
S'Robet'
p4561
sS'Vorhees'
p4562
S'Voorhees'
p4563
sS'ann\xc3\xa9e-lumi\xc3\xa8res'
p4564
S'ann\xc3\xa9es-lumi\xc3\xa8re'
p4565
sS'V\xc3\xa9locit\xc3\xa9'
p4566
S'V\xc3\xa9locit\xc3\xa9V\xc3\xa9locit\xc3\xa9'
p4567
sS'30\xc3\xa8me'
p4568
S'30e'
p4569
sS'multi-inutrumentaliste'
p4570
S'multi-instrumentaliste'
p4571
sS'Ricar'
p4572
S'Ricard'
p4573
sS'D .'
p4574
S'David'
p4575
sS'juive'
p4576
S'sioniste'
p4577
sS'activt\xc3\xa9'
p4578
S'activit\xc3\xa9'
p4579
sS'gourvernement'
p4580
S'gouvernement'
p4581
sS'traditionnnelle'
p4582
S'traditionnelle'
p4583
sS'finallement'
p4584
S'finalement'
p4585
sS'. Les'
p4586
S', les'
p4587
sS'prennaient'
p4588
S'prenaient'
p4589
sS'VIVANT'
p4590
S'r\xc3\xa9sidant'
p4591
sS'\xc2\xbb, bosquet'
p4592
S'\xc2\xbb for\xc3\xaat'
p4593
sS'2006H\xc3\xa9l\xc3\xa9na'
p4594
S'2007H\xc3\xa9l\xc3\xa9na'
p4595
sS'Pokemon'
p4596
S'Pok\xc3\xa9mon'
p4597
sS'courament'
p4598
S'couramment'
p4599
sS'r\xc3\xa9pr\xc3\xa9sentant'
p4600
S'repr\xc3\xa9sentant'
p4601
sS'Epoque'
p4602
S'\xc3\x89poque'
p4603
sS'g\xc3\xa9n\xc3\xa9rals'
p4604
S'g\xc3\xa9n\xc3\xa9raux'
p4605
sS'in\xc3\xa9narable'
p4606
S'in\xc3\xa9narrable'
p4607
sS'enrengistr\xc3\xa9'
p4608
S'enregistr\xc3\xa9s'
p4609
sS'Speech'
p4610
S'Discours'
p4611
sS'Sovi\xc3\xa8tes'
p4612
S'Sovi\xc3\xa9tiques'
p4613
sS'Vilehardouin'
p4614
S'Villehardouin'
p4615
sS'r\xc3\xa9alisateur'
p4616
S'r\xc3\xa9alisateurs'
p4617
sS'maudit'
p4618
S'maudites'
p4619
sS'plan\xc3\xa8tre'
p4620
S'plan\xc3\xa8te'
p4621
sS'Elu'
p4622
S'\xc3\x89lu'
p4623
sS'Jartazi'
p4624
S'Mitsubishi-Jartazi'
p4625
sS'subordonn\xc3\xa9es'
p4626
S'subordonn\xc3\xa9s'
p4627
sS'Poole'
p4628
S'Pool'
p4629
sS'riverrivi\xc3\xa9re'
p4630
S'riverrivi\xc3\xa8re'
p4631
sS'Pl\xc3\xa9bicit\xc3\xa9'
p4632
S'Pl\xc3\xa9bicit\xc3\xa9e'
p4633
sS'B\xc3\xbctgenbach'
p4634
S'Butgenbach'
p4635
sS'Beschtein'
p4636
S'Bechstein'
p4637
sS'impressionant'
p4638
S'impressionnant'
p4639
sS'chacuns'
p4640
S'chacun'
p4641
sS'Tokay'
p4642
S'Tokaj'
p4643
sS'donannt'
p4644
S'donnant'
p4645
sS'Bourgignons'
p4646
S'Bourguignons'
p4647
sS'1782-1866'
p4648
S'1782 -1866'
p4649
sS'0-2'
p4650
S'2-0'
p4651
sS'clarin\xc3\xa9tiste'
p4652
S'clarinettiste'
p4653
sS'Nole'
p4654
S'Nola'
p4655
sS'malgr\xc3\xa8'
p4656
S'malgr\xc3\xa9'
p4657
sS'Batailloncomprend'
p4658
S'Bataillon comprend'
p4659
sS'\xc3\xa9l\xc3\xa9v\xc3\xa9'
p4660
S'\xc3\xa9l\xc3\xa9v\xc3\xa9e'
p4661
sS'int\xc3\xa9ret'
p4662
S'int\xc3\xa9r\xc3\xaat'
p4663
sS'basket-ball'
p4664
S'baseball'
p4665
sS'985'
p4666
g928
sS'Beijing'
p4667
S'P\xc3\xa9kin'
p4668
sS'r\xc3\xa2t\xc3\xa9e'
p4669
S'rat\xc3\xa9e'
p4670
sS'insuffissance'
p4671
S'insuffisance'
p4672
sS'Essais'
p4673
S'Histoire'
p4674
sS'5-2'
p4675
S'5-3'
p4676
sS'19990'
p4677
S'1990'
p4678
sS'suffisement'
p4679
S'suffisamment'
p4680
sS'cip'
p4681
S'clip'
p4682
sS'frppant'
p4683
S'frappant'
p4684
sS'Roosdal'
p4685
S'Roosdaal'
p4686
sS'Fort-Saint-Jean'
p4687
S'Fort Saint-Jean'
p4688
sS'nouvkqkqkqkqkqkqkqkqkqkqkqkqkqkqkKQKQKQKQKQKQKQKQKQKQKQKQKQKQelle'
p4689
S'nouvelle'
p4690
sS'alba'
p4691
S'\xc3\x97alba'
p4692
sS'Abdulhamid'
p4693
S'Abd\xc3\xbclhamid'
p4694
sS'comman\xc3\xa7ant'
p4695
S'commen\xc3\xa7ant'
p4696
sS'jumeaux'
p4697
S'jumeau'
p4698
sS'N\xc3\xa9anmois'
p4699
S'N\xc3\xa9anmoins ,'
p4700
sS'Schoeman'
p4701
S'Shoeman'
p4702
sS'Xingtai'
p4703
S'Handan'
p4704
sS'ordianteur'
p4705
S'ordinateur'
p4706
sS'1897'
p4707
S'1987 :'
p4708
sS'1890'
p4709
S'1900'
p4710
sS'carosserie'
p4711
S'carrosserie'
p4712
sS'1893'
p4713
S'1885'
p4714
sS'independents'
p4715
S'ind\xc3\xa9pendants'
p4716
sS'logicels'
p4717
S'logiciels'
p4718
sS'Loisel'
p4719
S'Loysel'
p4720
sS'execut\xc3\xa9'
p4721
S'ex\xc3\xa9cut\xc3\xa9'
p4722
sS'f\xc3\xa8re'
p4723
S'fr\xc3\xa8re'
p4724
sS'D\xc3\xa9somrais'
p4725
S'D\xc3\xa9sormais'
p4726
sS'asociaux'
p4727
S'associaux'
p4728
sS'proopos\xc3\xa9e'
p4729
S'propos\xc3\xa9e'
p4730
sS'Vvaticane'
p4731
S'vaticane'
p4732
sS'Ceux'
p4733
S'Ce'
p4734
sS'Scenker'
p4735
S'Schenker'
p4736
sS'\xe2\x80\x93 uvre'
p4737
S'\xc5\x93uvre'
p4738
sS'd\xc3\xa9tect\xc3\xa9e'
p4739
S'd\xc3\xa9tect\xc3\xa9'
p4740
sS'coyance'
p4741
S'croyance'
p4742
sS'Manon'
p4743
S'Monique'
p4744
sS'Garges-l\xc3\xa8s-Gonessejusqu'
p4745
S'Garges-l\xc3\xa8s-Gonesse jusqu'
p4746
sS'1781-1844'
p4747
S'1781 -1844'
p4748
sS'Mal'
p4749
S'Mar\xc3\xa9chaux'
p4750
sS'Bibeault'
p4751
S'Bibault'
p4752
sS'Guanse'
p4753
S': il'
p4754
sS'entrain\xc3\xa9'
p4755
S'entra\xc3\xaen\xc3\xa9'
p4756
sS'rarent ,'
p4757
S'rares .'
p4758
sS'affaiblit'
p4759
S'affaibli'
p4760
sS'sculpteur-ferailleur'
p4761
S'sculpteur-ferrailleur'
p4762
sS'preator'
p4763
S'pr\xc3\xa6tor'
p4764
sS'AT'
p4765
S'BT'
p4766
sS'c\xc3\xa8nes'
p4767
S'sc\xc3\xa8nes'
p4768
sS'sous-marins'
p4769
S'sous-marin'
p4770
sS'Yangtze'
p4771
S'Changjiang'
p4772
sS'ancienement'
p4773
S'anciennement'
p4774
sS'h\xc3\xa9r\xc3\xa9tiquesi'
p4775
S'h\xc3\xa9r\xc3\xa9tiques'
p4776
sS'supris'
p4777
S'surpris'
p4778
sS'apper\xc3\xa7u'
p4779
S'aper\xc3\xa7u'
p4780
sS'dem-fond'
p4781
S'demi-fond'
p4782
sS'Uccle'
p4783
S'Etterbeek'
p4784
sg2089
S'em'
p4785
sS'baigne'
p4786
S'est'
p4787
sS'Boulager'
p4788
S'Boulanger'
p4789
sS'terrifi\xc3\xa9'
p4790
S'terrifi\xc3\xa9e'
p4791
sS'age'
p4792
S'\xc3\xa2ge'
p4793
sS'2002'
p4794
S'2001'
p4795
sS'2003'
p4796
S'2007'
p4797
sS'G .'
p4798
S'G\xc3\xa9rard'
p4799
sS'2001'
p4800
S'2002'
p4801
sS'2006'
p4802
S'2007'
p4803
sS'2007'
p4804
S'2005'
p4805
sS'2004'
p4806
S'20074'
p4807
sS'2005'
p4808
S'2003'
p4809
sS'Cardiff'
p4810
S'Tardif'
p4811
sS'2008'
p4812
S'2007'
p4813
sS'souffarit'
p4814
S'souffrait'
p4815
sS'manchoue'
p4816
S'Mandchous'
p4817
sS'Neuman'
p4818
S'Neumann'
p4819
sS'tra\xc3\xaen\xc3\xa9s'
p4820
S'train\xc3\xa9s'
p4821
sS'coicher'
p4822
S'cocher'
p4823
sS'Vampas'
p4824
S'Wampas'
p4825
sS'recelait'
p4826
S'rec\xc3\xa9lait'
p4827
sS'eds'
p4828
S'( dir'
p4829
sS'Lara'
p4830
S'klara'
p4831
sS'Pr\xc3\xa9sidential'
p4832
S'Presidential'
p4833
sS"qu '"
p4834
S'que'
p4835
sS'Shinjang'
p4836
S'Xinjiang'
p4837
sS'200px|thumb|left|Image'
p4838
S'right|thumb|Image'
p4839
sS'\xc3\xaaytre'
p4840
S'\xc3\xaatre'
p4841
sS'etait'
p4842
S'\xc3\xa9tait'
p4843
sS'apparament'
p4844
S'apparamment'
p4845
sS'exhorbit\xc3\xa9'
p4846
S'exorbit\xc3\xa9'
p4847
sS'compr\xc3\xa9h\xc3\xa9hension'
p4848
S'compr\xc3\xa9hension'
p4849
sS'septembre1969'
p4850
S'septembre 1969'
p4851
sS'r\xc3\xa9ouvrit'
p4852
S'rouvrit'
p4853
sS'animauix'
p4854
S'animaux'
p4855
sS'ciruit'
p4856
S'circuit'
p4857
sS'poitn'
p4858
S'point'
p4859
sS'\xc3\x89tats-Unisavec'
p4860
S'\xc3\x89tats-Unis avec'
p4861
sS'outre-merfran\xc3\xa7aisde'
p4862
S'outre-mer fran\xc3\xa7aisde'
p4863
sS'Owen'
p4864
S'Owend'
p4865
sS'apparance'
p4866
S'apparence'
p4867
sS'influent'
p4868
S'influents'
p4869
sS'resources'
p4870
S'ressources'
p4871
sS'dansLEFT'
p4872
S'dans'
p4873
sS'Istanbul'
p4874
S'\xc4\xb0stanbul'
p4875
sS'millieu'
p4876
S'milieu'
p4877
sS'channell\xc3\xa9'
p4878
S'channeller'
p4879
sS'oxyg\xc3\xa9n\xc3\xa9s'
p4880
S'oxydants'
p4881
sS'Projectile'
p4882
S'Projectile44'
p4883
sS'archiyecte'
p4884
S'architecte'
p4885
sS'muciales'
p4886
S'musicales'
p4887
sS'Bavarios'
p4888
S'Bavarois'
p4889
sS'Clingsor'
p4890
S'Klingsor'
p4891
sS'botamment'
p4892
S'notamment'
p4893
sS'Lounatcharsky'
p4894
S'Lounatcharski'
p4895
sS'Ennemi'
p4896
S'Enemy'
p4897
sS'Ousama'
p4898
S'Oussama'
p4899
sS'texile'
p4900
S'textile'
p4901
sS'Syndr\xc3\xb4me'
p4902
S'Syndrome'
p4903
sS'intercation'
p4904
S'interaction'
p4905
sS'1907'
p4906
S'1980'
p4907
sS'Lounatcharski'
p4908
S'Lounatcharsky'
p4909
sS'velo'
p4910
S'v\xc3\xa9lo'
p4911
sS'tranformer-et'
p4912
S'transformer-et'
p4913
sS'a\xc3\xa9rosols'
p4914
S'aerosols'
p4915
sS'impolie'
p4916
S'triviale'
p4917
sS'grauelle'
p4918
S'graduelle'
p4919
sS'aurontsix'
p4920
S'auront six'
p4921
sS'universi\xc3\xa9t'
p4922
S'universit\xc3\xa9'
p4923
sS'Lorque'
p4924
S'Lorsque'
p4925
sS'3O'
p4926
S'30'
p4927
sS'Atlanric'
p4928
S'Atlantic'
p4929
sS'quatier'
p4930
S'quartier'
p4931
sS'Saint-Julien'
p4932
S'pleine-haute'
p4933
sS'coeficient'
p4934
S'coefficient'
p4935
sS'SCUT'
p4936
S'Euroscut'
p4937
sS'D\xc3\xa9isi'
p4938
S'D\xc3\xa9ise'
p4939
sS'devindront'
p4940
S'deviendront'
p4941
sS'Evidemment'
p4942
S'\xc3\x89videmment'
p4943
sS'annoner'
p4944
S'annoncer'
p4945
sS'3t'
p4946
S'3 t'
p4947
sS'novelliste'
p4948
S'romanci\xc3\xa8re'
p4949
sS'Niemen'
p4950
S'Ni\xc3\xa9men'
p4951
sS'sufisamment'
p4952
S'suffisamment'
p4953
sS'poles'
p4954
S'p\xc3\xb4les'
p4955
sS'Guignes'
p4956
S'Guines'
p4957
sS'- A'
p4958
S'* \xc3\x80'
p4959
sS'\xc3\xa9migr\xc3\xa9e'
p4960
S'\xc3\xa9migr\xc3\xa9'
p4961
sS'Ienissei'
p4962
S'Ienisse\xc3\xaf'
p4963
sS'redevint'
p4964
S'redevient'
p4965
sS'limitateur'
p4966
S'limiteur'
p4967
sS'LeMonde-3'
p4968
S'Le Monde-3'
p4969
sS'quelq'
p4970
S'quelqu'
p4971
sS'Jump "'
p4972
S'jump'
p4973
sS'duNord-Est'
p4974
S'du Nord-Est'
p4975
sS'Mulvay'
p4976
S'Mulvey'
p4977
sS'Houstonparut'
p4978
S'Houston parut'
p4979
sS'uyIl'
p4980
S'Il'
p4981
sS'Alois'
p4982
S'Dieudonne'
p4983
sS'Oudenarde'
p4984
S'Oudenaarde'
p4985
sS'38'
p4986
S'trente-huit'
p4987
sS'33'
p4988
S'34'
p4989
sS'32'
p4990
S'123'
p4991
sS'30'
p4992
S'20'
p4993
sS'37'
p4994
S'44'
p4995
sS'Leila'
p4996
S'Le\xc3\xafla'
p4997
sS'contradiction'
p4998
S'contraction'
p4999
sS'34'
p5000
S'33'
p5001
sS'Stuts'
p5002
S'Szuts'
p5003
sS'judokate'
p5004
S'judokat'
p5005
sS'1930'
p5006
S'trente'
p5007
sS'sujetle'
p5008
S'sujet le'
p5009
sS'reichmarks'
p5010
S'reichsmarks'
p5011
sS'Carlsbad'
p5012
S'Karlsbad'
p5013
sS'ci-contre'
p5014
S'ci-dessus'
p5015
sS'Tr\xc3\xa9s'
p5016
S'Tr\xc3\xa8s'
p5017
sS'\xc3\xa9l\xc3\xa9ction'
p5018
S'\xc3\xa9lection'
p5019
sS'personellement'
p5020
S'personnellement'
p5021
sS'Favart'
p5022
S'Monnet'
p5023
sS'consepte'
p5024
S'concept'
p5025
sS'Ausi'
p5026
S'Aussi'
p5027
sS'etTwilight'
p5028
S', Twilight'
p5029
sS'pulique'
p5030
S'publique'
p5031
sS'Lenz'
p5032
S'Lentz'
p5033
sS'Dieudonne'
p5034
S'Alois'
p5035
sS'fi\xc3\xa8le'
p5036
S'fid\xc3\xa8le'
p5037
sS'Omologato'
p5038
S'Omologata'
p5039
sS'Pr\xc3\xa8s'
p5040
S'Apr\xc3\xa8s'
p5041
sS'h\xc3\xa9ro'
p5042
S'h\xc3\xa9ros'
p5043
sS'Eroll'
p5044
S'Errol'
p5045
sS'1930s,'
p5046
S'1930 ,'
p5047
sS'ecole'
p5048
S'\xc3\xa9cole'
p5049
sS'filtres'
p5050
S'cs'
p5051
sS'ien'
p5052
S'en'
p5053
sS'Omologata'
p5054
S'Omologato'
p5055
sS'missile'
p5056
S'missiles'
p5057
sS'int\xc3\xa9resants'
p5058
S'int\xc3\xa9ressants'
p5059
sS'\xc3\xa9x\xc3\xa9cut\xc3\xa9e'
p5060
S'ex\xc3\xa9cut\xc3\xa9e'
p5061
sS'TREFOU'
p5062
S'Tr\xc3\xa9fou'
p5063
sS'VIIe'
p5064
S'VII e'
p5065
sS'consomateur'
p5066
S'consommateur'
p5067
sS'reflections'
p5068
S'r\xc3\xa9flextions'
p5069
sS'Stravinski'
p5070
S'Stravinsky'
p5071
sS'nored-est'
p5072
S'nord-est'
p5073
sS'apparement'
p5074
S'apparemment'
p5075
sS'turpidinem'
p5076
S'turpitudinem'
p5077
sS'Benasque'
p5078
S'B\xc3\xa9nasque'
p5079
sS'Arkhangelsk-Murmansk'
p5080
S'Arkhangelsk-Mourmansk'
p5081
sS'rchestre'
p5082
S'Orchestre'
p5083
sS'qu\xc3\xa9becoises'
p5084
S'qu\xc3\xa9b\xc3\xa9coises'
p5085
sS'ammende'
p5086
S'amende'
p5087
sS'deveint'
p5088
S'devient'
p5089
sS'Broaddway'
p5090
S'Broadway'
p5091
sS'r\xc3\xa8glementations'
p5092
S'r\xc3\xa9glementations'
p5093
sS', adapt\xc3\xa9es'
p5094
S'adapt\xc3\xa9s'
p5095
sS'Tsiganes'
p5096
S'Tziganes'
p5097
sS'Northern'
p5098
S'Nord'
p5099
sS'XIX\xc3\xa8me'
p5100
S'XIXe'
p5101
sS'Ach\xc3\xa9vement'
p5102
S'Ach\xc3\xa8vement'
p5103
sS'pieces'
p5104
S'pi\xc3\xa8ces'
p5105
sS'mobiless'
p5106
S'mobiles'
p5107
sS'ressortit'
p5108
S'r\xc3\xa9apparut'
p5109
sS'toujurs'
p5110
S'toujours'
p5111
sS'mosa\xc3\xafque'
p5112
S'Mosaique'
p5113
sS'.-Arte'
p5114
S'. -- Arte'
p5115
sS'polaro\xc3\xafd'
p5116
S'polaroid'
p5117
sS'calv\xc3\xa8re'
p5118
S'calvaire'
p5119
sS'Toubakouta'
p5120
S'Toubacouta'
p5121
sS'dansla'
p5122
S"dansl '"
p5123
sS'(3305m)'
p5124
S'( 3305 m)'
p5125
sS'c\xc5\x93ur'
p5126
S'ch\xc5\x93ur'
p5127
sS'Wava'
p5128
S'Wawa'
p5129
sS'appell\xc3\xa9s'
p5130
S'appel\xc3\xa9s'
p5131
sS'professionnelsAlliens'
p5132
S'professionnelsAlliance'
p5133
sS'rep\xc3\xa9ch\xc3\xa9'
p5134
S'rep\xc3\xa9ch\xc3\xa9s'
p5135
sS'Lindsquit'
p5136
S'Lindquist'
p5137
sS'protraits'
p5138
S'portraits'
p5139
sS'goldsmith'
p5140
S'orf\xc3\xa8vre'
p5141
sS'internationnal'
p5142
S'international'
p5143
sS'km2'
p5144
S'km\xc2\xb2'
p5145
sS'Mohammad'
p5146
S'Mohammed'
p5147
sS'pseudocharmeur'
p5148
S'pseudo-charmeur'
p5149
sS'Border-Gavaskar-Trophy'
p5150
S'Border-Gavaskar Trophy'
p5151
sS'quotidienes'
p5152
S'quotidiens'
p5153
sS'd\xc3\xa9mocratiques'
p5154
S'g\xc3\xa9n\xc3\xa9rales'
p5155
sS'Bosnie-Herzegovine'
p5156
S'Bosnie-Herz\xc3\xa9govine'
p5157
sS'Lujiang'
p5158
S'Huainan'
p5159
sS'solenelle'
p5160
S'solennelle'
p5161
sS'Apollon-Mithras-H\xc3\xa9lios'
p5162
S'Apollon-Mithra-H\xc3\xa9lios'
p5163
sS'abuse'
p5164
S'abusent'
p5165
sS'1889'
p5166
S'1989'
p5167
sS'Eidhoven'
p5168
S'Eindhoven'
p5169
sS'1886'
p5170
S'1885'
p5171
sS'F\xc3\xbcrher'
p5172
S'F\xc3\xbchrer'
p5173
sS'aligncenter|'
p5174
S'||'
p5175
sS'Clermont-Tallart'
p5176
S'Clermont-Tonnerre'
p5177
sS'norrmalement'
p5178
S'normalement'
p5179
sS'Saint-Pol'
p5180
S'Saint-P\xc3\xb4l'
p5181
sS'qu\xc3\xa9b\xc3\xa9coise'
p5182
S'canadienne'
p5183
sS'kangoourous'
p5184
S'kangourous'
p5185
sS'One'
p5186
S'On'
p5187
sS'laD\xc3\xa9claration'
p5188
S'la D\xc3\xa9claration'
p5189
sS'aeroport'
p5190
S'a\xc3\xa9roport'
p5191
sS'v\xc3\xa9n\xc3\xa9zuelien'
p5192
S'v\xc3\xa9n\xc3\xa9zu\xc3\xa9lien'
p5193
sS'tutsie'
p5194
S'tutsi'
p5195
sS'R\xc3\xa9ublique'
p5196
S'R\xc3\xa9publique'
p5197
sS'Etoile'
p5198
S'\xc3\x89toile'
p5199
sS'borde'
p5200
S'bord\xc3\xa9'
p5201
sS'Saint-Jean-Baptiste'
p5202
S'Saint Jean-Baptiste'
p5203
sS'reggrouper'
p5204
S'regrouper'
p5205
sS'Angelica'
p5206
S'Anjelica'
p5207
sS'Court-Saint-Etienne'
p5208
S'Court-Saint-\xc3\x89tienne'
p5209
sS'Livres'
p5210
S'Roman'
p5211
sS'explisifs'
p5212
S'explosifs'
p5213
sS'1m\xc3\xa9rite'
p5214
S'1 m\xc3\xa9rite'
p5215
sS'th\xc3\xa9oriue'
p5216
S'th\xc3\xa9orie'
p5217
sS'cuivrefix\xc3\xa9s'
p5218
S'cuivre fix\xc3\xa9s'
p5219
sS'annukle'
p5220
S'annule'
p5221
sS'IAU'
p5222
S'UAI'
p5223
sS'europ\xc3\xa9ene'
p5224
S'europ\xc3\xa9enne'
p5225
sS'137'
p5226
S'156'
p5227
sS'2006-2007'
p5228
S'2007-2008'
p5229
sS'classifie'
p5230
S'consid\xc3\xa8re'
p5231
sS'Jonsson'
p5232
S'J\xc3\xb3nsson'
p5233
sS'1'
p5234
S'en'
p5235
sS'av\xc3\xa9re'
p5236
S'av\xc3\xa8re'
p5237
sS'Decourt'
p5238
S'Decout'
p5239
sS'prmi\xc3\xa8re'
p5240
S'premi\xc3\xa8re'
p5241
sS'lit\xc3\xa9ralement'
p5242
S'fran\xc3\xa7ais'
p5243
sS'mainenus'
p5244
S'maintenus'
p5245
sS'pluspart'
p5246
S'plupart'
p5247
sS'aucuns'
p5248
S'aucun'
p5249
sS'Ev\xc3\xaach\xc3\xa9'
p5250
S'Ev\xc3\xa9ch\xc3\xa9'
p5251
sS'rasciste'
p5252
S'raciste'
p5253
sS'\xc3\xaate'
p5254
S'\xc3\xaatre'
p5255
sS'Tientai'
p5256
S'Tiantai'
p5257
sS'jeuneusse'
p5258
S'jeunesse'
p5259
sS'Dolfuss'
p5260
S'Dollfuss'
p5261
sS'occutle'
p5262
S'occulte'
p5263
sS'7km'
p5264
S'7 km'
p5265
sS'Scutosaures'
p5266
S'Scutosaurus'
p5267
sS'\xc3\x89tats-lolUnis'
p5268
S'\xc3\x89tats-Unis'
p5269
sS'G\xc3\xa9rad'
p5270
S'G\xc3\xa9rard'
p5271
sS'metta'
p5272
S'mis'
p5273
sS'- 1580'
p5274
S'-1580'
p5275
sS'remplacant'
p5276
S'rempla\xc3\xa7ant'
p5277
sS'batiments'
p5278
S'b\xc3\xa2timents'
p5279
sS'ordianteru'
p5280
S'ordianteur'
p5281
sS'regulateur'
p5282
S'r\xc3\xa9gulateur'
p5283
sS'appell\xc3\xa9e'
p5284
S'appel\xc3\xa9e'
p5285
sS'Sao'
p5286
S'S\xc3\xa3o'
p5287
sS'jujste'
p5288
S'juste'
p5289
sS'dipute'
p5290
S'dispute'
p5291
sS'VII'
p5292
S'VIII'
p5293
sS'utilisable'
p5294
S'utilisables'
p5295
sS'l\xc3\xa9gerement'
p5296
S'l\xc3\xa9g\xc3\xa8rement'
p5297
sS'n\xc3\xa9c\xc3\xa9ssaire'
p5298
S'n\xc3\xa9cessaire'
p5299
sS'am\xc3\xa9icaine'
p5300
S'am\xc3\xa9ricaine'
p5301
sS'd\xc3\xa8ls'
p5302
S'd\xc3\xa8s'
p5303
sS'Capitaine )'
p5304
S'C)'
p5305
sS'Nouvfelle'
p5306
S'Nouvelle'
p5307
sS'recontre'
p5308
S'rencontre'
p5309
sS'boycottage'
p5310
S'boycott'
p5311
sS'circulaire'
p5312
S'semicirculaire'
p5313
sS'intent\xc3\xaeon'
p5314
S'intention'
p5315
sS'82'
p5316
S'87'
p5317
sS'83'
p5318
S'84'
p5319
sS'80'
p5320
S'1980'
p5321
sS'87'
p5322
S'88'
p5323
sS'84'
p5324
S'92'
p5325
sS'd\xc3\xa9pla\xc3\xa7e'
p5326
S'd\xc3\xa9place'
p5327
sS'pr\xc3\xa9tendu "'
p5328
S'\xc3\xa9t\xc3\xa9'
p5329
sS'Rossas'
p5330
S'Rossa'
p5331
sS'Rio'
p5332
S'R\xc3\xado'
p5333
sS'expliciterment'
p5334
S'explicitement'
p5335
sS'- 2007'
p5336
S'-2007'
p5337
sS'Ouest'
p5338
S'Est'
p5339
sS'ilre\xc3\xa7oit'
p5340
S'il re\xc3\xa7oit'
p5341
sS'Aou'
p5342
S'Ahou'
p5343
sS'15ans'
p5344
S'15 ans'
p5345
sS'compl\xc3\xa9metaires'
p5346
S'compl\xc3\xa9mentaires'
p5347
sS'Edoko'
p5348
S'Edokko'
p5349
sS'Etang'
p5350
S'\xc3\x89tang'
p5351
sS'Photographie'
p5352
S'Photographies'
p5353
sS'regionales'
p5354
S'r\xc3\xa9gionales'
p5355
sS'Gersois'
p5356
S'Aveyronnais'
p5357
sS'Armyle'
p5358
S'Army le'
p5359
sS'coulleurs'
p5360
S'couleurs'
p5361
sS'Castelo'
p5362
S'Castello'
p5363
sS'australienne'
p5364
S'australien'
p5365
sS'fertout'
p5366
S'fertouc'
p5367
sS'o\xc3\xba'
p5368
S'o\xc3\xb9'
p5369
sS'cytostatique'
p5370
S'cytostatiques'
p5371
sS't\xc3\xa9te'
p5372
S't\xc3\xaate'
p5373
sS'ordinnaire'
p5374
S'ordinaire'
p5375
sS'chateau-fort'
p5376
S'ch\xc3\xa2teau-fort'
p5377
sS'ELANCOURT'
p5378
S'\xc3\x89lancourt .'
p5379
sS'protagoniste'
p5380
S'protagonistes'
p5381
sS'Kermandec'
p5382
S'Kermadec'
p5383
sS'ap\xc3\xa8s'
p5384
S'apr\xc3\xa8s'
p5385
sS'traditionaliste'
p5386
S'traditionnaliste'
p5387
sS'Garcia'
p5388
S'Garc\xc3\xada'
p5389
sS'partiellement'
p5390
S'compl\xc3\xa9ment'
p5391
sS'Robutin'
p5392
S'Rabutin'
p5393
sS'd\xc3\xa9gat'
p5394
S'd\xc3\xa9g\xc3\xa2t'
p5395
sS'Tukestan'
p5396
S'Turkestan'
p5397
sS'cadie'
p5398
S'caddie'
p5399
sS'r\xc3\xa9ssucit\xc3\xa9'
p5400
S'ressucit\xc3\xa9'
p5401
sS'Wiesel'
p5402
S'fr'
p5403
sS'hebreux'
p5404
S'h\xc3\xa9breux'
p5405
sS'totalitaire'
p5406
S'militaire'
p5407
sS'enTunisie'
p5408
S'en Tunisie'
p5409
sS'Review'
p5410
S'Chronique'
p5411
sS'caracteris\xc3\xa9'
p5412
S'caract\xc3\xa9ris\xc3\xa9'
p5413
sS'etJackie'
p5414
S'et Jackie'
p5415
sS'formage'
p5416
S'fromage'
p5417
sS'Marcellin'
p5418
S'Marcelin'
p5419
sS'apelle'
p5420
S'appelle'
p5421
sS'maisonde'
p5422
S'maison de'
p5423
sS'florentineet'
p5424
S'florentine et'
p5425
sS'leparti'
p5426
S'le parti'
p5427
sS'Irak'
p5428
S'Afghanistan'
p5429
sS'd\xc3\xa9form\xc3\xa9'
p5430
S'd\xc3\xa9form\xc3\xa9s'
p5431
sS'Dextrase-Monast'
p5432
S'Dextraze-Monast'
p5433
sS'Shane'
p5434
S'Gr\xc3\xa9gory'
p5435
sS'(* le'
p5436
S'(\xc2\xb0'
p5437
sS'Baron-Cohe'
p5438
S'Baron-Cohen'
p5439
sS'Gorey'
p5440
S'Gouray'
p5441
sS'actvit\xc3\xa9s'
p5442
S'activit\xc3\xa9s'
p5443
sS'dissolution'
p5444
S'disparition'
p5445
sS'contien'
p5446
S'contient'
p5447
sS'Vals'
p5448
S'Vals-les-Bains'
p5449
sS'fidd\xc3\xa9rents'
p5450
S'diff\xc3\xa9rents'
p5451
sS'. 000'
p5452
S'mille'
p5453
sS'prone'
p5454
S'pr\xc3\xb4ne'
p5455
sS'bret\xc3\xaache'
p5456
S'bret\xc3\xa8che'
p5457
sS'dnas'
p5458
S'dans'
p5459
sS'Evreux'
p5460
S'\xc3\x89vreux'
p5461
sS'Roissy-CDG'
p5462
S'Roissy-Charles-de-Gaulle'
p5463
sS'nenets'
p5464
S'n\xc3\xa9n\xc3\xa8tses'
p5465
sS'Chaveau'
p5466
S'Chauveau'
p5467
sS'Nemrud'
p5468
S'Nemrod'
p5469
sS'dandereux'
p5470
S'dangereux'
p5471
sS'innondation'
p5472
S'inondation'
p5473
sS'Osel-Wiek'
p5474
S'\xc3\x96sel-Wiek'
p5475
sS'1er'
p5476
S'1 er'
p5477
sS'lerotor'
p5478
S'le rotor'
p5479
sS'Rarement'
p5480
S'Souvent'
p5481
sS'mitig\xc3\xa9s'
p5482
S'mitig\xc3\xa9es'
p5483
sS'H\xc3\xb4-Chi-Minh-VilleH\xc3\xb4'
p5484
S'H\xc3\xb4-Chi-Minh-Ville'
p5485
sS'transformateur'
p5486
S'TP'
p5487
sS'tr\xc3\xa9s'
p5488
S'tr\xc3\xa8s'
p5489
sS'p\xc3\xa9che'
p5490
S'p\xc3\xaache'
p5491
sS'repr\xc3\xa8sentante'
p5492
S'repr\xc3\xa9sentante'
p5493
sS'h\xc3\xa9catombres'
p5494
S'h\xc3\xa9catombes'
p5495
sS'onc'
p5496
S'donc'
p5497
sS'Willson'
p5498
S'Wilson'
p5499
sS'Edition'
p5500
S'\xc3\x89dition'
p5501
sS'siecles'
p5502
S'si\xc3\xa8cles'
p5503
sS'Soeur'
p5504
S'S\xc5\x93ur'
p5505
sS'Engineer'
p5506
S'Engineering'
p5507
sS'cinquante'
p5508
S'soixante'
p5509
sS'Mitterand'
p5510
S'Mitterrand'
p5511
sS'Coeur-de-Lion'
p5512
S'C\xc5\x93ur-de-Lion'
p5513
sS'encontrer'
p5514
S'rencontrer'
p5515
sS'conqu\xc3\xa8te'
p5516
S'conqu\xc3\xaate'
p5517
sS'Althausen'
p5518
S'Altshausen'
p5519
sS'd\xc3\xa9spotique'
p5520
S'despotique'
p5521
sS'reflet\xc3\xa9'
p5522
S'refl\xc3\xa9t\xc3\xa9e'
p5523
sS'Markers'
p5524
S'Makers'
p5525
sS'comfortable'
p5526
S'confortable'
p5527
sS'construirent'
p5528
S'construisent'
p5529
sS'19 ? ?'
p5530
S'1915'
p5531
sS'escriptions'
p5532
S'descriptions'
p5533
sS'Editions'
p5534
S'\xc3\x89ditions'
p5535
sS'Breakers'
p5536
S'Breaker'
p5537
sS'sufit'
p5538
S'suffit'
p5539
sS'Sekigaharaen'
p5540
S'Sekigahara en'
p5541
sS'pposera'
p5542
S'opposera'
p5543
sS'\xe2\x80\xa0 836'
p5544
S'-\xe2\x80\xa0 837'
p5545
sS'fuessent'
p5546
S'fussent'
p5547
sS'Noigailach'
p5548
S'Noigiallach'
p5549
sS'\xc3\xa9lements'
p5550
S'\xc3\xa9l\xc3\xa9ments'
p5551
sS'd\xc3\xa9vellopp\xc3\xa9'
p5552
S'd\xc3\xa9velopp\xc3\xa9'
p5553
sS'd\xc3\xa9funteWorld'
p5554
S'd\xc3\xa9funte World'
p5555
sS'Aravie'
p5556
S'Aravis'
p5557
sS'mille'
p5558
S'000'
p5559
sS'filosofie'
p5560
S'philosophie'
p5561
sS'detto'
p5562
S'dit'
p5563
sS'Pierce'
p5564
S'Peirce'
p5565
sS'56'
p5566
S'52'
p5567
sS'duministre'
p5568
S'du ministre'
p5569
sS', qui'
p5570
S'. Celle-ci'
p5571
sS'chassi'
p5572
S'ch\xc3\xa2ssis'
p5573
sS'19885'
p5574
S'1988'
p5575
sS'Sarkakhian'
p5576
S'Sarkakhyan'
p5577
sS'assit\xc3\xa9'
p5578
S'assist\xc3\xa9'
p5579
sS'Egalement'
p5580
S'\xc3\x89galement'
p5581
sS'acceuilir'
p5582
S'accueilir'
p5583
sS'enqu\xc3\xa9tes'
p5584
S'enqu\xc3\xaates'
p5585
sS'06'
p5586
g169
sS'dif\xc3\xa9rencie'
p5587
S'diff\xc3\xa9rencie'
p5588
sS'IMCCEhttp'
p5589
S'IMCCE http'
p5590
sS'class'
p5591
S'classe'
p5592
sS'En1867'
p5593
S'En 1867'
p5594
sS'Apercu'
p5595
S'Aper\xc3\xa7u'
p5596
sS'Russes'
p5597
S'sovi\xc3\xa9tiques'
p5598
sS'Coeur'
p5599
S'C\xc5\x93ur'
p5600
sS'd\xc3\xa9cr\xc3\xaat'
p5601
S'd\xc3\xa9cret'
p5602
sS'd\xc3\xa9crt'
p5603
S'd\xc3\xa9cret'
p5604
sS'Oliba'
p5605
S'Oliva'
p5606
sS'DeLong'
p5607
S'De Long'
p5608
sS'Buzan\xc3\xa7ais'
p5609
S'Buzancy'
p5610
sS'\xef\xbf\xbd\xef\xbf\xbdPr\xc3\xa9sidente'
p5611
S'Pr\xc3\xa9sidente'
p5612
sS'. Le'
p5613
S'le'
p5614
sS'GFC'
p5615
S'Gaz\xc3\xa9lec'
p5616
sS'Contes'
p5617
S'Conte'
p5618
sS'Franc-Ma\xc3\xa7ons'
p5619
S'Franc-Ma\xc3\xa7onss'
p5620
sS'09'
p5621
g2266
sS'battailles'
p5622
S'batailles'
p5623
sS'ccantonne'
p5624
S'cantonne'
p5625
sS'# 13'
p5626
S'\xe2\x99\xaf13'
p5627
sS'Metropole'
p5628
S'm\xc3\xa9tropole'
p5629
sS'TF !'
p5630
S'TFOU'
p5631
sS'rambardes'
p5632
S'garde-corps'
p5633
sS'Detroit'
p5634
S'D\xc3\xa9troit'
p5635
sS'Situ\xc3\xa9'
p5636
S'Situ\xc3\xa9e'
p5637
sS'\xc3\xa9kranoplane'
p5638
S'ekranoplane'
p5639
sS'1960-June'
p5640
S'1960-Juin'
p5641
sS'vicitmes'
p5642
S'victimes'
p5643
sS'cadvres'
p5644
S'cadavres'
p5645
sS'G\xc3\xa9n\xc3\xa9rale'
p5646
S'G\xc3\xa9n\xc3\xa9ral'
p5647
sS'Hough'
p5648
S'Il'
p5649
sS'Extrement'
p5650
S'Tr\xc3\xa8s'
p5651
sS'090'
p5652
S'008000'
p5653
sS'Mon'
p5654
S'M\xc3\xb4n'
p5655
sS"q'"
p5656
S"qu '"
p5657
sS'controle'
p5658
S'contr\xc3\xb4le'
p5659
sS'Initiallement'
p5660
S'Initialement'
p5661
sS'Th\xc3\xa9atre'
p5662
S'Th\xc3\xa9\xc3\xa2tre'
p5663
sS'3\xc3\xa8me'
p5664
S'troisi\xc3\xa8me'
p5665
sS'lesBears'
p5666
S'les Bears'
p5667
sS'nichent'
p5668
S'niche'
p5669
sS'Cupanibre'
p5670
S'Chupanibre'
p5671
sS'Japonnais'
p5672
S'Japonais'
p5673
sS'atterissage'
p5674
S'atterrissage'
p5675
sS'maitris\xc3\xa9e'
p5676
S'ma\xc3\xaetris\xc3\xa9e'
p5677
sS'120'
p5678
S'121'
p5679
sS'Saunier-S\xc3\xa9it\xc3\xa9'
p5680
S'Saunier-Seit\xc3\xa9'
p5681
sS'duTroms'
p5682
S'du Troms'
p5683
sS'qu'
p5684
S'qui'
p5685
sS'Foucault'
p5686
S'Foucauld'
p5687
sS'Montfaucon--Tombe'
p5688
S'Montfaucon- Tombe'
p5689
sS'h'
p5690
S'h,'
p5691
sS'ravissur'
p5692
S'ravisseur'
p5693
sS'Mhyadali'
p5694
S'Khyadali'
p5695
sS'XV\xc3\xa8me'
p5696
S'XVe'
p5697
sS'asse'
p5698
S'assez'
p5699
sS'Lallement'
p5700
S'Lallemant'
p5701
sS'Conjointement'
p5702
S'\xc2\xa8Parall\xc3\xa8lement'
p5703
sS'ent\xc3\xa2me'
p5704
S'entame'
p5705
sS'\xc3\xaatre-la'
p5706
S'\xc3\xaatre-l\xc3\xa0'
p5707
sS'Norv\xc3\xa9ge'
p5708
S'Norv\xc3\xa8ge'
p5709
sS'delta\xc3\xa8dre'
p5710
S'delta\xc3\xa8dres'
p5711
sS'\xc3\xa0au'
p5712
S'au'
p5713
sS'traditionnaliste'
p5714
S'traditionaliste'
p5715
sS'Abichared'
p5716
S'Abirached'
p5717
sS'syts\xc3\xa8me'
p5718
S'syst\xc3\xa8me'
p5719
sS'exp\xc3\xa8rience'
p5720
S'exp\xc3\xa9rience'
p5721
sS'boulversement'
p5722
S'bouleversement'
p5723
sS'. -- Arte'
p5724
S'.-Arte'
p5725
sS'entrenu'
p5726
S'entretenus'
p5727
sS'popu'
p5728
S'popularit\xc3\xa9 .'
p5729
sS'Petra'
p5730
S'P\xc3\xa9tra'
p5731
sS'elevateur'
p5732
S'\xc3\xa9l\xc3\xa9vateur'
p5733
sS'f\xc3\xb4ret'
p5734
S'for\xc3\xaat'
p5735
sS'porte-greffesnaturellement'
p5736
S'porte-greffes naturellement'
p5737
sS'azzura'
p5738
S'azzurra'
p5739
sS'Aequum'
p5740
S'\xc3\x86quum'
p5741
sS'cons\xc3\xa9quenceS'
p5742
S'cons\xc3\xa9quence'
p5743
sS'Isaakson'
p5744
S'Naledi'
p5745
sS'anamotique'
p5746
S'anatomique'
p5747
sS'Nicolle'
p5748
S'Nicole'
p5749
sS', en'
p5750
S'\xe2\x80\x93 En'
p5751
sS'Simonpaoli'
p5752
S'Paoli'
p5753
sS'Adolf'
p5754
S'Anthony'
p5755
sS'Capuro'
p5756
S'Caputo'
p5757
sS'Topola'
p5758
S'Toplica'
p5759
sS'Eindhoven'
p5760
S'Eidhoven'
p5761
sS'P6'
p5762
S'4267P6'
p5763
sS'RU'
p5764
S'Royaume-Uni'
p5765
sS'pluri-kilom\xc3\xa9trique'
p5766
S'plurikilom\xc3\xa9trique'
p5767
sS'P;'
p5768
S'Paul'
p5769
sS'entrainement'
p5770
S'entra\xc3\xaenement'
p5771
sS'Kalimpong'
p5772
S'Darjeeling'
p5773
sS'robits'
p5774
S'robots'
p5775
sS'nommination'
p5776
S'nomination'
p5777
sS'symt\xc3\xb4mes'
p5778
S'sympt\xc3\xb4mes'
p5779
sS'familliale'
p5780
S'familiale'
p5781
sS'ets'
p5782
S'est'
p5783
sS'1646'
p5784
S'1647'
p5785
sS'averera'
p5786
S'av\xc3\xa8rera'
p5787
sS'Zofingen'
p5788
S'Zofingue'
p5789
sS'Borderaux'
p5790
S'Bordereaux'
p5791
sS'pr\xc3\xa9d\xc3\xa9c\xc3\xa9d\xc3\xa9'
p5792
S'pr\xc3\xa9-d\xc3\xa9c\xc3\xa9d\xc3\xa9'
p5793
sS'g\xc3\xa9n\xc3\xa9tiques'
p5794
S'g\xc3\xa9n\xc3\xa9tique'
p5795
sS'dolest'
p5796
S'dol est'
p5797
sS'PresqueC\xc3\xa9l\xc3\xa8bre'
p5798
S'Presque C\xc3\xa9l\xc3\xa8bre'
p5799
sS'Synth\xc3\xa9tiseur'
p5800
S'Synth\xc3\xa9tiseurs'
p5801
sS'htm-Nice-Cimiez'
p5802
S'htm'
p5803
sS'LCH'
p5804
S'CHL'
p5805
sS'|Carzou'
p5806
S'Carzou'
p5807
sS'Etat'
p5808
S'\xc3\x89tat'
p5809
sS'Kohanim'
p5810
S'Cohanim'
p5811
sS'platanesabattus'
p5812
S'platanes abattus'
p5813
sS'UMP'
p5814
S'RPR'
p5815
sS'cc'
p5816
S'cm\xc2\xb3 \xc2\xab'
p5817
sS'ca'
p5818
S'\xc3\xa7a'
p5819
sS'contagie'
p5820
S'contamine'
p5821
sS'Villehardouin'
p5822
S'Vilehardouin'
p5823
sS'-->'
p5824
S'--/>'
p5825
sS'rajoutera'
p5826
S'ajoutera :'
p5827
sS'nenet'
p5828
S'nenets'
p5829
sS'refroidissment'
p5830
S'refroidissement'
p5831
sS'cs'
p5832
S'filtres'
p5833
sS'Enfin'
p5834
S'Et'
p5835
sS'mafia'
p5836
S'pornographie'
p5837
sS'troupaux'
p5838
S'troupeaux'
p5839
sS'sront'
p5840
S'seront'
p5841
sS'Savoie'
p5842
S'Haute-Savoie'
p5843
sS'communeaut\xc3\xa9'
p5844
S'communaut\xc3\xa9'
p5845
sS'videos'
p5846
S'vid\xc3\xa9os'
p5847
sS'contestables'
p5848
S'incontestables'
p5849
sS'Kissh\xc3\xb4'
p5850
S'Kissh\xc5\x8d'
p5851
sS'cyclogie'
p5852
S'cyclologie'
p5853
sS'chaques'
p5854
S'chaque'
p5855
sS'sattellise'
p5856
S'satellise'
p5857
sS'rennaissance'
p5858
S'renaissance'
p5859
sS'assur\xc3\xa9r'
p5860
S'assurer'
p5861
sS'SPLAF ('
p5862
S'splaf-('
p5863
sS'equipe'
p5864
S'\xc3\xa9quipe'
p5865
sS'remedier'
p5866
S'rem\xc3\xa9dier'
p5867
sS'Ferraris'
p5868
S'Ferrari'
p5869
sS'Cepandant'
p5870
S'Cependant'
p5871
sS'bolsheviks'
p5872
S'bolcheviks'
p5873
sS'Cantanl'
p5874
S'Cantal'
p5875
sS'piques'
p5876
S'pique'
p5877
sS'XIX\xc2\xb0'
p5878
S'XIXe'
p5879
sS'tranquilit\xc3\xa9'
p5880
S'silence'
p5881
sS'1200'
p5882
S'1 200'
p5883
sS'bonhommes'
p5884
S'bonshommes'
p5885
sS'promouvoit'
p5886
S'promeut'
p5887
sS'Parson'
p5888
S'Parsons'
p5889
sS'IEC'
p5890
S'CEI'
p5891
sS'Olmert'
p5892
S'OlmertCapital'
p5893
sS'otu'
p5894
S'tout'
p5895
sS'exmples'
p5896
S'exemples'
p5897
sS'Sir'
p5898
S'William'
p5899
sS'Nu\xc3\xb1ez'
p5900
S'N\xc3\xba\xc3\xb1ez'
p5901
sS'v\xc3\xa9g\xc3\xa9ale'
p5902
S'v\xc3\xa9g\xc3\xa9tale'
p5903
sS'Arsen'
p5904
S'Ars\xc3\xa8ne'
p5905
sS'Afrikaners'
p5906
S'Afrikaner'
p5907
sS'rejet\xc3\xa9'
p5908
S'rejet\xc3\xa9e'
p5909
sS'gar\xc3\xa7n'
p5910
S'gar\xc3\xa7on'
p5911
sS'sous-dirl\xc3\xa9cteur'
p5912
S'sous-directeur'
p5913
sS'woodblock'
p5914
S'Wood-block'
p5915
sS'locationest'
p5916
S'location est'
p5917
sS'difus\xc3\xa9e'
p5918
S'diffus\xc3\xa9e'
p5919
sS'Nassau-Wiesbaden-Idstein'
p5920
S'Nassau'
p5921
sS'au'
p5922
S'du'
p5923
sS'honorifique'
p5924
S'triomphale'
p5925
sS'Ia\xc3\xa2zoguen'
p5926
S'Azazga'
p5927
sS'Ev\xc3\xa9ch\xc3\xa9'
p5928
S'\xc3\xa9v\xc3\xa9ch\xc3\xa9'
p5929
sS'Deplus'
p5930
S'De plus'
p5931
sS'Noir'
p5932
S'Noire'
p5933
sS'boite'
p5934
S'bo\xc3\xaete'
p5935
sS'cinqs'
p5936
S'cinq'
p5937
sS'\xc3\xa9st'
p5938
S'est'
p5939
sS'laDynastie'
p5940
S'la Dynastie'
p5941
sS'minimoye'
p5942
S'minimoy'
p5943
sS'anglo-saxone'
p5944
S'anglo-saxonne'
p5945
sS'donctionnent'
p5946
S'fonctionnent'
p5947
sS'Malm\xc3\xa9dy'
p5948
S'Malmedy'
p5949
sS'vo'
p5950
S'von'
p5951
sS'Slov\xc3\xa8nie'
p5952
S'Slov\xc3\xa9nie'
p5953
sS'1604m'
p5954
S'1604 m'
p5955
sS'courronnes'
p5956
S'couronnes'
p5957
sS'rammener'
p5958
S'ramener'
p5959
sS'ave'
p5960
S'avec'
p5961
sS'Cepenfant'
p5962
S'Cependant'
p5963
sS'Carte'
p5964
S'lame'
p5965
sS'avc'
p5966
S'avec'
p5967
sS'sc\xc3\xa9narii'
p5968
S'sc\xc3\xa9narios'
p5969
sS'cens\xc3\xa9'
p5970
S'cens\xc3\xa9s'
p5971
sS'p\xc3\xa9nisule'
p5972
S'p\xc3\xa9ninsule'
p5973
sS'\xc3\x89film'
p5974
S'film'
p5975
sS'illicites'
p5976
S'interdites'
p5977
sS'lin\xc3\xa9aire'
p5978
S'bilin\xc3\xa9aire'
p5979
sS'rhodanien'
p5980
S'rh\xc3\xb4danien'
p5981
sS'Pendant'
p5982
S', pendant'
p5983
sS'fusionnant'
p5984
S'confondant'
p5985
sS'd\xc3\xa9sodre'
p5986
S'd\xc3\xa9sordre'
p5987
sS'inaceptable'
p5988
S'inacceptable'
p5989
sS'Bijapur'
p5990
S'B\xc3\xaej\xc3\xa2pur'
p5991
sS'Coran'
p5992
S'Kyp'
p5993
sS'premiere'
p5994
S'premi\xc3\xa8re'
p5995
sS'extention'
p5996
S'extension'
p5997
sS'(~300'
p5998
S'( 300'
p5999
sS'Pour'
p6000
S', pour'
p6001
sS'catholiscisme'
p6002
S'catholicisme'
p6003
sS'Bowdicth'
p6004
S'Bowditch'
p6005
sS'Alto'
p6006
S'Aalto'
p6007
sS'0000cv'
p6008
S'000cv'
p6009
sS'pourquoi'
p6010
S'que'
p6011
sS'ran\xc3\xa7an'
p6012
S'ran\xc3\xa7on'
p6013
sS'hindoustanie'
p6014
S'Hindoustani'
p6015
sS'appele'
p6016
S'appelle'
p6017
sS'Maryinskii'
p6018
S'Mariinsky'
p6019
sS'Debbouzze'
p6020
S'Debbouze'
p6021
sS'dernoi\xc3\xa8res'
p6022
S'derni\xc3\xa8res'
p6023
sS'MONTAIGUT'
p6024
S'Montaigut :'
p6025
sS'Calabarzon'
p6026
S'Calabarz\xc3\xb3n'
p6027
sS'\xc3\xa9rig\xc3\xa8reny'
p6028
S'\xc3\xa9rig\xc3\xa8re'
p6029
sS'affiliation\xc3\xa9e'
p6030
S'affili\xc3\xa9e'
p6031
sS'Eviter'
p6032
S'\xc3\x89viter'
p6033
sS'Aigrebrune'
p6034
S'Echebrune'
p6035
sS'Alamagordo'
p6036
S'Alamogordo'
p6037
sS'\xc3\xa9tuits'
p6038
S'\xc3\xa9tuis'
p6039
sS'legerement'
p6040
S'l\xc3\xa9gerement'
p6041
sS'r\xc3\xa9fl\xc3\xaachir'
p6042
S'r\xc3\xa9fl\xc3\xa9chir'
p6043
sS'esayiste'
p6044
S'essayiste'
p6045
sS'dangeureux'
p6046
S'dangereux'
p6047
sS'quue'
p6048
S'que'
p6049
sS'Canal+\xe2\x80\x94'
p6050
S'Canal+ /'
p6051
sS'Coinc\xc3\xa9'
p6052
S'Coinc\xc3\xa9e'
p6053
sS'r\xc3\xa9ouverte'
p6054
S'rouverte'
p6055
sS'exetension'
p6056
S'extension'
p6057
sS'Eduard'
p6058
S'Edward'
p6059
sS'Hippolyte'
p6060
S'Hyppolite'
p6061
sS'\xc3\xa9l\xc3\xa9ctricit\xc3\xa9'
p6062
S'\xc3\xa9lectricit\xc3\xa9'
p6063
sS'Isra\xc3\xabl\xc3\xa0'
p6064
S'Isra\xc3\xabl \xc3\xa0'
p6065
sS'd\xc3\xa8couvert'
p6066
S'd\xc3\xa9couvert'
p6067
sS'NSDAPsemble'
p6068
S'NSDAP semble'
p6069
sS'sophisitqu\xc3\xa9e'
p6070
S'sophistiqu\xc3\xa9e'
p6071
sS'auracisme'
p6072
S'au racisme'
p6073
sS'Dioscorides'
p6074
S'Dioscoride'
p6075
sS's\xc3\xa9f\xc3\xa9rade'
p6076
S's\xc3\xa9farade'
p6077
sS'Q'
p6078
S'QI )'
p6079
sS'Bleunwennet'
p6080
S'Bleunwenn et'
p6081
sS'\xc3\x88tats-Unis'
p6082
S'\xc3\x89tats-Unis'
p6083
sS'Coussin'
p6084
S'Cousin'
p6085
sS'537'
p6086
S'500'
p6087
sS'philat\xc3\xa9listes'
p6088
S'origamistes'
p6089
sS'haue'
p6090
S'haute'
p6091
sS'reetour'
p6092
S'retour'
p6093
sS': il'
p6094
S'. Il'
p6095
sS'developp\xc3\xa9'
p6096
S'd\xc3\xa9velopp\xc3\xa9'
p6097
sS'Aujourd'
p6098
S'rightAujourd'
p6099
sS'contreverse'
p6100
S'controverse'
p6101
sS'Ch\xc3\xa2teau-Ch\xc3\xa2lon'
p6102
S'Ch\xc3\xa2teau-Chalon'
p6103
sS'pers\xc3\xa9ctuvives'
p6104
S'pers\xc3\xa9cutives'
p6105
sS'Penelope'
p6106
S'Pen\xc3\xa9lope'
p6107
sS'sute'
p6108
S'suite'
p6109
sS'2PS2'
p6110
g926
sS'Lasers'
p6111
S'Laser'
p6112
sS'Colomierset'
p6113
S'Colomiers et'
p6114
sS'publicit\xc3\xa9es'
p6115
S'publicit\xc3\xa9s'
p6116
sS"; l'"
p6117
S". L'"
p6118
sS'partire'
p6119
S'partir'
p6120
sS'988'
p6121
S'798'
p6122
sS'trovue'
p6123
S'trouve'
p6124
sS'Ireland'
p6125
S'Irlande'
p6126
sS'filolm'
p6127
S'film'
p6128
sS'coprs'
p6129
S'corps'
p6130
sS'varit\xc3\xa9'
p6131
S'vari\xc3\xa9t\xc3\xa9'
p6132
sS'singhpo'
p6133
S'singpho'
p6134
sS'114'
p6135
S'113'
p6136
sS'1786-1868'
p6137
S'1786 -1868'
p6138
sS'113'
p6139
S'114'
p6140
sS'112'
p6141
S'114'
p6142
sS'enferme'
p6143
S'enferm\xc3\xa9'
p6144
sS'altaiques'
p6145
S'alta\xc3\xafques'
p6146
sS'esu'
p6147
S'est'
p6148
sS'\xc3\xa9l\xc3\xa9v\xc3\xa9es'
p6149
S'\xc3\xa9lev\xc3\xa9es'
p6150
sS'chaine'
p6151
S'cha\xc3\xaene'
p6152
sS'd\xc3\xaates'
p6153
S'f\xc3\xaates'
p6154
sS'\xc3\xa9xecutaient'
p6155
S'ex\xc3\xa9cutaient'
p6156
sS'N\xc3\xa9erlandais'
p6157
S'Hollandais'
p6158
sS'Cote'
p6159
S'C\xc3\xb4te'
p6160
sS'quinze'
p6161
S'douze'
p6162
sS'WIVe'
p6163
S'XIVe'
p6164
sS'appr\xc3\xa9\xc3\xa7ie'
p6165
S'appr\xc3\xa9cie'
p6166
sS'appr\xc3\xa9\xc3\xa7ia'
p6167
S'appr\xc3\xa9\xc3\xa7ie'
p6168
sS'adress\xc3\xa9ees'
p6169
S'adress\xc3\xa9es'
p6170
sS'emprun\xc3\xa9'
p6171
S'emprunt\xc3\xa9'
p6172
sS'X\xc3\xa8me'
p6173
S'Xe'
p6174
sS'n\xc3\xa8gres'
p6175
S'cafres'
p6176
sS'Mauy'
p6177
S'Muay'
p6178
sS'Saint-Etienne'
p6179
S'Saint-\xc3\x89tienne'
p6180
sS'Montaigu-Listenois'
p6181
S'Montaigut-Listenois'
p6182
sS'C\xc3\xb4boy'
p6183
S'Coboy'
p6184
sS'particpant'
p6185
S'participant'
p6186
sS'Un'
p6187
S'Le'
p6188
sS'Usuellement'
p6189
S'Habituellement'
p6190
sS', celui'
p6191
S'qui'
p6192
sS'imortant'
p6193
S'important'
p6194
sS'045'
p6195
S'04S'
p6196
sS'imposable'
p6197
S'imposables'
p6198
sS'Beno\xc3\xaest'
p6199
S'Benoist'
p6200
sS'December'
p6201
S'D\xc3\xa9cembre'
p6202
sS'Morzine-Avoriaz'
p6203
S'Morzine'
p6204
sS'Kawasakiet'
p6205
S'Kawasaki et'
p6206
sS'Basses-Pyr\xc3\xa9n\xc3\xa9es'
p6207
S'Pyr\xc3\xa9n\xc3\xa9es-Atlantiques'
p6208
sS'LRV'
p6209
S'LAAG'
p6210
sS'incomprhension'
p6211
S'incompr\xc3\xa9hension'
p6212
sS'ubanisme'
p6213
S'urbanisme'
p6214
sS'Tch\xc3\xa9colovaquie'
p6215
S'Tch\xc3\xa9coslovaquie'
p6216
sS'utulis\xc3\xa9'
p6217
S'utilis\xc3\xa9'
p6218
sS'succintement'
p6219
S'succinctement'
p6220
sS'30mm'
p6221
S'25mm'
p6222
sS'diplom\xc3\xa9'
p6223
S'dipl\xc3\xb4m\xc3\xa9'
p6224
sS'plusgrande'
p6225
S'plus grande'
p6226
sS'domain'
p6227
S'domaine'
p6228
sS'reellement'
p6229
S'vraiment'
p6230
sS'britanique'
p6231
S'britannique'
p6232
sS'ancre'
p6233
S'encre'
p6234
sS'III'
p6235
S'Ire'
p6236
sS'1986'
p6237
S'1987'
p6238
sS'1987'
p6239
S'1988'
p6240
sS'1984'
p6241
S'1985'
p6242
sS'1985'
p6243
S'1983'
p6244
sS'americaine'
p6245
S'am\xc3\xa9ricaine'
p6246
sS'1980'
p6247
S'1907'
p6248
sS'innen'
p6249
S'int\xc3\xa9rieur'
p6250
sS'eikichi _'
p6251
S'Eikichi .'
p6252
sS'1988'
p6253
S'1987'
p6254
sS'Uros'
p6255
S'Uro\xc5\xa1'
p6256
sS'Localisation'
p6257
S'Situation'
p6258
sS'Rinpoche'
p6259
S'Rinpoch\xc3\xa9'
p6260
sS'miniscules'
p6261
S'minuscules'
p6262
sS'manteau'
p6263
S'marteau'
p6264
sS'fr\xc3\xa9quement'
p6265
S'fr\xc3\xa9quemment'
p6266
sS'Epineuil-le-Fleuriel'
p6267
S'\xc3\x89pineuil-le-Fleuriel'
p6268
sS'Museum'
p6269
S'Mus\xc3\xa9um'
p6270
sS'dessin\xc3\xa9'
p6271
S'dessin\xc3\xa9e'
p6272
sS'deBaudelaire'
p6273
S'de Baudelaire'
p6274
sS's\xc3\xa9l\xc3\xa9ction'
p6275
S's\xc3\xa9lection'
p6276
sS'Dinamo'
p6277
S'Dynamo'
p6278
sS'Science'
p6279
S'Sciences'
p6280
sS'P\xc3\xa8n\xc3\xa8dj'
p6281
S'P\xc3\xa8n\xc3\xa8j'
p6282
sS'Chancelerrie'
p6283
S'Chancellerie'
p6284
sS'orthograph\xc3\xa9'
p6285
S'orthographi\xc3\xa9'
p6286
sS'B\xc3\xa8deBede'
p6287
S'B\xc3\xa8de'
p6288
sS'Chehwan'
p6289
S'Chehwane'
p6290
sS'Baudais'
p6291
S'Beaudet'
p6292
sS'Lundqviste'
p6293
S'Lundqvist'
p6294
sS'nouris'
p6295
S'nourris'
p6296
sS'Gold'
p6297
S'Cold'
p6298
sS'official'
p6299
S'officiel'
p6300
sS'chaines'
p6301
S'cha\xc3\xaenes'
p6302
sS'Saint-Epore'
p6303
S'Saint-Epvre'
p6304
sS'Rabbi'
p6305
S'Rab'
p6306
sS'v\xc3\xa9n\xc3\xa9zueliens'
p6307
S'v\xc3\xa9n\xc3\xa9zu\xc3\xa9liens'
p6308
sS'emp\xc3\xa9ch\xc3\xa9'
p6309
S'emp\xc3\xaacher'
p6310
sS'- Samba'
p6311
S'-Samba'
p6312
sS'ttention'
p6313
S'attention'
p6314
sS'* le'
p6315
S'Le'
p6316
sS'Allones'
p6317
S'Allonnes'
p6318
sS'Oricana'
p6319
S'Ocarina'
p6320
sS'Bankssi\xc3\xa6'
p6321
S'Banksi\xc3\xa6'
p6322
sS'problemes'
p6323
S'probl\xc3\xa8mes'
p6324
sS'pr\xc3\xa9c\xc3\xa9dantes'
p6325
S'pr\xc3\xa9c\xc3\xa9dentes'
p6326
sS'papeJean-Paul'
p6327
S'pape Jean-Paul'
p6328
sS'calculer'
p6329
S'd\xc3\xa9terminer'
p6330
sS'Congo-Kinshasa )'
p6331
S'R'
p6332
sS'coti\xc3\xa8re'
p6333
S'c\xc3\xb4ti\xc3\xa8re'
p6334
sS'foirmation'
p6335
S'formation'
p6336
sS'our'
p6337
S'pour'
p6338
sS'mya'
p6339
S'maya'
p6340
sS'Ajourd'
p6341
S'Aujourd'
p6342
sS'payennes'
p6343
S'pa\xc3\xafennes'
p6344
sS'Th\xc3\xa9ophile-Alexander'
p6345
S'Th\xc3\xa9ophile-Alexandre'
p6346
sS'Onezhsky'
p6347
S'Onejsky'
p6348
sS'fesaient'
p6349
S'faisaient'
p6350
sS'Tranfert'
p6351
S'Transfert'
p6352
sS'48'
p6353
S'quarante-huit'
p6354
sS'49'
p6355
S'42'
p6356
sS'Wilheim'
p6357
S'Wilhelm'
p6358
sS'44'
p6359
S'37'
p6360
sS'jud\xc3\xa9it\xc3\xa9'
p6361
S'juda\xc3\xaft\xc3\xa9'
p6362
sS'42'
p6363
S'quarante-deux'
p6364
sS'43'
p6365
S'42'
p6366
sS'40'
p6367
S'1940'
p6368
sS'destroyeurs'
p6369
S'destroyers'
p6370
sS'sous-dirlo'
p6371
S'sous-directeur'
p6372
sS'comparer'
p6373
S'compar\xc3\xa9'
p6374
sS'er'
p6375
S'et'
p6376
sS'Hesse-Philippsthal-Barchfeld'
p6377
S'Hesse-Philippsthal'
p6378
sS"* l'"
p6379
S"L'"
p6380
sS'February'
p6381
S'Fevrier'
p6382
sS'arr . ),'
p6383
S'arrondissement ) ,'
p6384
sS'milions'
p6385
S'millions'
p6386
sS'RTBFtous'
p6387
S'RTBF tous'
p6388
sS'd\xc3\xa9barasser'
p6389
S'd\xc3\xa9barrasser'
p6390
sS'April'
p6391
S'Avril'
p6392
sS'Chancelier'
p6393
S'boulanger'
p6394
sS'Ch\xc3\xa9phren'
p6395
S'Kh\xc3\xa9phren'
p6396
sS'derux'
p6397
S'deux'
p6398
sS'r\xc3\xa9alisa\xc3\xa9es'
p6399
S'r\xc3\xa9alis\xc3\xa9e'
p6400
sS'd\xc3\xa9finition'
p6401
S'transmission'
p6402
sS'concus'
p6403
S'con\xc3\xa7us'
p6404
sS'historienchr\xc3\xa9tien'
p6405
S'historien chr\xc3\xa9tien'
p6406
sS'000$'
p6407
S'000'
p6408
sS'Girard'
p6409
S'G\xc3\xa9rard'
p6410
sS'fumeroles'
p6411
S'fumerolles'
p6412
sS'\xc3\xa9crii'
p6413
S'orthographi\xc3\xa9'
p6414
sS'Archaeopteris-\xc3\xa0'
p6415
S'Archaeopteris3-\xc3\xa0'
p6416
sS'Phoenissae'
p6417
S'Ph\xc5\x93niss\xc3\xa6'
p6418
sS'Ch\xc3\xa9ops'
p6419
S'Kh\xc3\xa9ops'
p6420
sS'facsimil\xc3\xa9'
p6421
S'exemplaire'
p6422
sS'circus \xc2\xbb'
p6423
S'Circus'
p6424
sS'tangente'
p6425
S'quasi-tangente'
p6426
sS'Gauloix'
p6427
S'gaulois .'
p6428
sS'4e'
p6429
S'4 e'
p6430
sS'\xc3\xa9leve'
p6431
S'\xc3\xa9l\xc3\xa8ve'
p6432
sS'phosphat'
p6433
S'phosphate'
p6434
sS'rejettant'
p6435
S'rejetant'
p6436
s.